(dp0
S'http://dbpedia.org/property/origin'
p1
I67
sS'http://dbpedia.org/ontology/city'
p2
I60
sS'http://dbpedia.org/property/awards'
p3
I474
sS'http://dbpedia.org/property/sepRecordHighC'
p4
I440
sS'http://dbpedia.org/ontology/routeEnd'
p5
I137
sS'http://dbpedia.org/property/dateOfBirth'
p6
I13
sS'http://dbpedia.org/property/blank1Name'
p7
I138
sS'http://dbpedia.org/ontology/birthName'
p8
I29
sS'http://dbpedia.org/ontology/isPartOf'
p9
I43
sS'http://dbpedia.org/ontology/nationality'
p10
I240
sS'http://dbpedia.org/property/sepHighC'
p11
I264
sS'http://dbpedia.org/property/marRecordHighF'
p12
I483
sS'http://dbpedia.org/property/gnd'
p13
I413
sS'http://dbpedia.org/property/hometown'
p14
I191
sS'http://www.w3.org/2003/01/geo/wgs84_pos#lat'
p15
I49
sS'http://dbpedia.org/property/siteCityst'
p16
I242
sS'http://dbpedia.org/property/nationality'
p17
I164
sS'http://dbpedia.org/property/venue'
p18
I225
sS'http://dbpedia.org/ontology/district'
p19
I293
sS'http://dbpedia.org/ontology/narrator'
p20
I204
sS'http://dbpedia.org/property/areaCode'
p21
I95
sS'http://www.georss.org/georss/point'
p22
I48
sS'http://dbpedia.org/property/novRecordLowF'
p23
I495
sS'http://dbpedia.org/property/novRecordLowC'
p24
I423
sS'http://dbpedia.org/ontology/spokenIn'
p25
I383
sS'http://dbpedia.org/property/screenplay'
p26
I176
sS'http://dbpedia.org/ontology/viafId'
p27
I16
sS'http://dbpedia.org/property/dateOfDeath'
p28
I40
sS'http://dbpedia.org/property/deathCause'
p29
I212
sS'http://dbpedia.org/property/febRecordHighC'
p30
I446
sS'http://dbpedia.org/property/birthDate'
p31
I22
sS'http://dbpedia.org/property/hostCity'
p32
I404
sS'http://dbpedia.org/ontology/individualisedGnd'
p33
I408
sS'http://purl.org/dc/elements/1.1/description'
p34
I7
sS'http://dbpedia.org/property/febSun'
p35
I393
sS'http://dbpedia.org/property/settlementType'
p36
I94
sS'http://dbpedia.org/ontology/activeYearsEndYear'
p37
I62
sS'http://dbpedia.org/property/sepRecordHighF'
p38
I478
sS'http://dbpedia.org/ontology/producer'
p39
I26
sS'http://dbpedia.org/property/areaLandSqMi'
p40
I154
sS'http://dbpedia.org/property/novPrecipitationDays'
p41
I374
sS'http://dbpedia.org/property/destinations'
p42
I410
sS'http://dbpedia.org/property/decHighC'
p43
I269
sS'http://dbpedia.org/property/junMeanC'
p44
I459
sS'http://dbpedia.org/property/partner'
p45
I252
sS'http://dbpedia.org/property/birthPlace'
p46
I6
sS'http://dbpedia.org/property/populationDensitySqMi'
p47
I159
sS'http://dbpedia.org/property/keyPeople'
p48
I416
sS'http://dbpedia.org/property/artist'
p49
I181
sS'http://dbpedia.org/property/populationDemonym'
p50
I411
sS'http://dbpedia.org/ontology/areaLand'
p51
I123
sS'http://dbpedia.org/property/areaWaterPercent'
p52
I418
sS'http://dbpedia.org/property/aprPrecipitationDays'
p53
I365
sS'http://dbpedia.org/property/pushpinMap'
p54
I213
sS'http://dbpedia.org/ontology/locationCountry'
p55
I473
sS'http://dbpedia.org/property/mayPrecipitationInch'
p56
I340
sS'http://dbpedia.org/ontology/populationTotal'
p57
I58
sS'http://dbpedia.org/ontology/composer'
p58
I296
sS'http://dbpedia.org/property/marRecordLowC'
p59
I433
sS'http://dbpedia.org/property/singleLine'
p60
I174
sS'http://dbpedia.org/property/north'
p61
I144
sS'http://dbpedia.org/property/areaMagnitude'
p62
I417
sS'http://dbpedia.org/property/host'
p63
I425
sS'http://dbpedia.org/property/garrison'
p64
I233
sS'http://dbpedia.org/property/imageSize'
p65
I195
sS'http://dbpedia.org/property/blank1Info'
p66
I150
sS'http://dbpedia.org/property/augMeanC'
p67
I452
sS'http://dbpedia.org/property/postalCode'
p68
I97
sS'http://dbpedia.org/property/junPrecipitationDays'
p69
I367
sS'http://dbpedia.org/ontology/populationTotalRanking'
p70
I421
sS'http://dbpedia.org/property/marRecordHighC'
p71
I437
sS'http://dbpedia.org/property/guests'
p72
I73
sS'http://dbpedia.org/ontology/capital'
p73
I330
sS'http://dbpedia.org/property/centre'
p74
I237
sS'http://dbpedia.org/ontology/relative'
p75
I222
sS'http://dbpedia.org/property/blankName'
p76
I128
sS'http://dbpedia.org/property/locationTown'
p77
I256
sS'http://dbpedia.org/property/junPrecipitationMm'
p78
I358
sS'http://dbpedia.org/property/fightingOutOf'
p79
I363
sS'http://dbpedia.org/property/rtitle'
p80
I216
sS'http://dbpedia.org/property/marPrecipitationDays'
p81
I370
sS'http://dbpedia.org/property/octSun'
p82
I391
sS'http://dbpedia.org/property/aprRecordLowF'
p83
I498
sS'http://dbpedia.org/property/aprRecordLowC'
p84
I422
sS'http://dbpedia.org/property/editing'
p85
I96
sS'http://dbpedia.org/property/augPrecipitationDays'
p86
I369
sS'http://dbpedia.org/property/dialCode'
p87
I479
sS'http://dbpedia.org/property/southwest'
p88
I180
sS'http://dbpedia.org/property/aprPrecipitationInch'
p89
I344
sS'http://dbpedia.org/ontology/associatedBand'
p90
I168
sS'http://dbpedia.org/property/stadium'
p91
I148
sS'http://dbpedia.org/property/marHighF'
p92
I298
sS'http://dbpedia.org/property/cities'
p93
I377
sS'http://dbpedia.org/property/almaMater'
p94
I162
sS'http://dbpedia.org/property/longitude'
p95
I311
sS'http://dbpedia.org/property/marHighC'
p96
I266
sS'http://dbpedia.org/property/occupation'
p97
I19
sS'http://dbpedia.org/property/place'
p98
I172
sS'http://dbpedia.org/property/areaLandKm'
p99
I147
sS'http://dbpedia.org/property/caption'
p100
I17
sS'http://dbpedia.org/property/imageSeal'
p101
I246
sS'http://dbpedia.org/property/spouse'
p102
I21
sS'http://dbpedia.org/property/writer'
p103
I38
sS'http://dbpedia.org/property/populationEst'
p104
I284
sS'http://dbpedia.org/property/cinematography'
p105
I63
sS'http://dbpedia.org/property/before'
p106
I198
sS'http://dbpedia.org/property/latns'
p107
I88
sS'http://dbpedia.org/property/birthName'
p108
I34
sS'http://dbpedia.org/property/sepPrecipitationInch'
p109
I338
sS'http://dbpedia.org/property/hqCity'
p110
I419
sS'http://dbpedia.org/property/novMeanC'
p111
I455
sS'http://dbpedia.org/property/type'
p112
I285
sS'http://dbpedia.org/property/yearLowC'
p113
I380
sS'http://dbpedia.org/ontology/deathDate'
p114
I41
sS'http://dbpedia.org/property/title'
p115
I36
sS'http://dbpedia.org/property/subdivisionType'
p116
I79
sS'http://dbpedia.org/property/postcodeDistrict'
p117
I472
sS'http://dbpedia.org/property/julRecordHighC'
p118
I438
sS'http://dbpedia.org/property/julRecordHighF'
p119
I487
sS'http://dbpedia.org/property/octPrecipitationInch'
p120
I337
sS'http://dbpedia.org/property/parents'
p121
I197
sS'http://xmlns.com/foaf/0.1/name'
p122
I2
sS'http://dbpedia.org/ontology/locationCity'
p123
I118
sS'http://dbpedia.org/ontology/occupation'
p124
I18
sS'http://dbpedia.org/property/placeOfDeath'
p125
I24
sS'http://dbpedia.org/property/sepSun'
p126
I390
sS'http://dbpedia.org/property/mayRecordHighC'
p127
I448
sS'http://dbpedia.org/property/story'
p128
I379
sS'http://dbpedia.org/ontology/garrison'
p129
I215
sS'http://dbpedia.org/property/religion'
p130
I464
sS'http://dbpedia.org/property/shipNamesake'
p131
I328
sS'http://dbpedia.org/property/janLowF'
p132
I323
sS'http://dbpedia.org/property/assembly'
p133
I403
sS'http://dbpedia.org/property/establishedTitle'
p134
I145
sS'http://dbpedia.org/ontology/releaseDate'
p135
I465
sS'http://dbpedia.org/property/augRecordLowC'
p136
I427
sS'http://dbpedia.org/ontology/residence'
p137
I66
sS'http://dbpedia.org/property/leaderName'
p138
I104
sS'http://dbpedia.org/property/novPrecipitationInch'
p139
I336
sS'http://dbpedia.org/property/mayLowC'
p140
I276
sS'http://dbpedia.org/property/mayLowF'
p141
I319
sS'http://dbpedia.org/property/decRecordHighC'
p142
I443
sS'http://dbpedia.org/ontology/restingPlace'
p143
I107
sS'http://dbpedia.org/property/decRecordHighF'
p144
I480
sS'http://dbpedia.org/property/deathDate'
p145
I52
sS'http://dbpedia.org/property/febMeanC'
p146
I457
sS'http://dbpedia.org/property/otherNames'
p147
I493
sS'http://dbpedia.org/property/decLowF'
p148
I312
sS'http://dbpedia.org/property/decLowC'
p149
I281
sS'http://dbpedia.org/property/label'
p150
I194
sS'http://dbpedia.org/property/octLowF'
p151
I313
sS'http://dbpedia.org/property/imagesize'
p152
I124
sS'http://dbpedia.org/property/distributor'
p153
I74
sS'http://dbpedia.org/property/decHighF'
p154
I302
sS'http://dbpedia.org/property/marSun'
p155
I394
sS'http://dbpedia.org/ontology/lccnId'
p156
I325
sS'http://dbpedia.org/property/latd'
p157
I69
sS'http://dbpedia.org/ontology/populationMetro'
p158
I248
sS'http://dbpedia.org/ontology/builder'
p159
I382
sS'http://dbpedia.org/property/janPrecipitationMm'
p160
I353
sS'http://dbpedia.org/ontology/budget'
p161
I171
sS'http://dbpedia.org/ontology/birthDate'
p162
I12
sS'http://dbpedia.org/property/febPrecipitationInch'
p163
I341
sS'http://dbpedia.org/ontology/cinematography'
p164
I90
sS'http://dbpedia.org/property/yearsActive'
p165
I35
sS'http://dbpedia.org/property/headquarters'
p166
I116
sS'http://dbpedia.org/property/janSun'
p167
I392
sS'http://dbpedia.org/property/instrument'
p168
I405
sS'http://dbpedia.org/property/decMeanC'
p169
I456
sS'http://dbpedia.org/property/timezoneDst'
p170
I113
sS'http://xmlns.com/foaf/0.1/homepage'
p171
I46
sS'http://dbpedia.org/property/south'
p172
I132
sS'http://dbpedia.org/property/portrayer'
p173
I130
sS'http://dbpedia.org/property/febRecordHighF'
p174
I482
sS'http://dbpedia.org/property/julSun'
p175
I389
sS'http://dbpedia.org/property/nickname'
p176
I211
sS'http://dbpedia.org/property/children'
p177
I54
sS'http://dbpedia.org/property/decRecordLowC'
p178
I432
sS'http://dbpedia.org/property/p'
p179
I399
sS'http://dbpedia.org/property/s'
p180
I420
sS'http://dbpedia.org/property/populationAsOf'
p181
I78
sS'http://dbpedia.org/property/latm'
p182
I84
sS'http://dbpedia.org/property/genre'
p183
I199
sS'http://dbpedia.org/property/education'
p184
I235
sS'http://dbpedia.org/property/lccn'
p185
I349
sS'http://dbpedia.org/property/source'
p186
I165
sS'http://dbpedia.org/ontology/education'
p187
I207
sS'http://dbpedia.org/ontology/areaWater'
p188
I127
sS'http://dbpedia.org/property/lats'
p189
I126
sS'http://dbpedia.org/property/owner'
p190
I228
sS'http://dbpedia.org/ontology/broadcastArea'
p191
I201
sS'http://dbpedia.org/property/janHighC'
p192
I257
sS'http://dbpedia.org/property/elevationFt'
p193
I135
sS'http://dbpedia.org/ontology/foundedBy'
p194
I409
sS'http://dbpedia.org/property/precipitationColour'
p195
I329
sS'http://dbpedia.org/property/aprPrecipitationMm'
p196
I357
sS'http://dbpedia.org/property/julPrecipitationMm'
p197
I360
sS'http://dbpedia.org/property/janHighF'
p198
I310
sS'http://dbpedia.org/property/subdivisionName'
p199
I44
sS'http://dbpedia.org/property/aprSun'
p200
I395
sS'http://dbpedia.org/property/address'
p201
I188
sS'http://dbpedia.org/property/novPrecipitationMm'
p202
I362
sS'http://dbpedia.org/property/locationCity'
p203
I120
sS'http://dbpedia.org/property/director'
p204
I30
sS'http://dbpedia.org/property/motto'
p205
I226
sS'http://dbpedia.org/property/sepPrecipitationDays'
p206
I372
sS'http://dbpedia.org/property/ground'
p207
I189
sS'http://dbpedia.org/property/postTown'
p208
I352
sS'http://dbpedia.org/ontology/populationDensity'
p209
I129
sS'http://dbpedia.org/ontology/musicalBand'
p210
I415
sS'http://dbpedia.org/property/populationMetro'
p211
I251
sS'http://dbpedia.org/property/decPrecipitationDays'
p212
I375
sS'http://dbpedia.org/property/viaf'
p213
I244
sS'http://dbpedia.org/property/placeofburial'
p214
I331
sS'http://dbpedia.org/ontology/director'
p215
I31
sS'http://dbpedia.org/property/released'
p216
I283
sS'http://dbpedia.org/property/augPrecipitationInch'
p217
I342
sS'http://dbpedia.org/property/areaWaterKm'
p218
I158
sS'http://dbpedia.org/property/aprLowF'
p219
I318
sS'http://dbpedia.org/property/after'
p220
I187
sS'http://dbpedia.org/ontology/place'
p221
I190
sS'http://dbpedia.org/property/nearestCity'
p222
I192
sS'http://dbpedia.org/property/mayRecordLowC'
p223
I431
sS'http://dbpedia.org/property/location'
p224
I32
sS'http://dbpedia.org/property/extra'
p225
I193
sS'http://dbpedia.org/property/elevationM'
p226
I122
sS'http://dbpedia.org/property/northeast'
p227
I177
sS'http://dbpedia.org/property/janRecordLowF'
p228
I491
sS'http://dbpedia.org/property/aprMeanC'
p229
I461
sS'http://dbpedia.org/property/studio'
p230
I114
sS'http://dbpedia.org/ontology/timeZone'
p231
I85
sS'http://dbpedia.org/property/areaWaterSqMi'
p232
I155
sS'http://dbpedia.org/property/imageFlag'
p233
I206
sS'http://dbpedia.org/property/date'
p234
I142
sS'http://dbpedia.org/property/data'
p235
I282
sS'http://dbpedia.org/property/website'
p236
I65
sS'http://dbpedia.org/ontology/recordLabel'
p237
I324
sS'http://dbpedia.org/property/janRecordLowC'
p238
I428
sS'http://dbpedia.org/property/city'
p239
I53
sS'http://dbpedia.org/property/coordinatesRegion'
p240
I140
sS'http://dbpedia.org/property/coordinatesDisplay'
p241
I106
sS'http://dbpedia.org/ontology/alias'
p242
I39
sS'http://dbpedia.org/property/blankInfo'
p243
I156
sS'http://dbpedia.org/property/shortDescription'
p244
I8
sS'http://dbpedia.org/property/associatedActs'
p245
I183
sS'http://dbpedia.org/property/febLowC'
p246
I272
sS'http://dbpedia.org/property/longm'
p247
I83
sS'http://dbpedia.org/property/imageSkyline'
p248
I115
sS'http://dbpedia.org/property/octHighC'
p249
I259
sS'http://dbpedia.org/property/octHighF'
p250
I300
sS'http://dbpedia.org/property/decPrecipitationInch'
p251
I335
sS'http://dbpedia.org/property/district'
p252
I412
sS'http://dbpedia.org/property/longd'
p253
I68
sS'http://dbpedia.org/property/marPrecipitationMm'
p254
I356
sS'http://dbpedia.org/property/longs'
p255
I125
sS'http://xmlns.com/foaf/0.1/givenName'
p256
I9
sS'http://dbpedia.org/property/imageMap'
p257
I99
sS'http://dbpedia.org/ontology/location'
p258
I45
sS'http://dbpedia.org/property/governmentType'
p259
I185
sS'http://dbpedia.org/property/area'
p260
I160
sS'http://dbpedia.org/ontology/hometown'
p261
I55
sS'http://dbpedia.org/property/yearHighC'
p262
I378
sS'http://dbpedia.org/property/octLowC'
p263
I277
sS'http://dbpedia.org/property/areaTotalKm'
p264
I100
sS'http://dbpedia.org/ontology/routeStart'
p265
I136
sS'http://dbpedia.org/property/birthplace'
p266
I255
sS'http://dbpedia.org/ontology/background'
p267
I231
sS'http://dbpedia.org/ontology/locatedInArea'
p268
I205
sS'http://dbpedia.org/property/febHighF'
p269
I309
sS'http://dbpedia.org/property/based'
p270
I332
sS'http://dbpedia.org/property/febHighC'
p271
I258
sS'http://dbpedia.org/ontology/country'
p272
I37
sS'http://dbpedia.org/property/region'
p273
I112
sS'http://dbpedia.org/ontology/postalCode'
p274
I71
sS'http://dbpedia.org/ontology/gross'
p275
I134
sS'http://dbpedia.org/property/febLowF'
p276
I316
sS'http://dbpedia.org/ontology/writer'
p277
I33
sS'http://dbpedia.org/property/budget'
p278
I170
sS'http://dbpedia.org/property/areaServed'
p279
I247
sS'http://xmlns.com/foaf/0.1/nick'
p280
I223
sS'http://dbpedia.org/property/populationRank'
p281
I386
sS'http://dbpedia.org/property/janLowC'
p282
I271
sS'http://dbpedia.org/property/officialName'
p283
I86
sS'http://dbpedia.org/property/julLowC'
p284
I280
sS'http://dbpedia.org/property/julLowF'
p285
I321
sS'http://dbpedia.org/property/align'
p286
I407
sS'http://dbpedia.org/property/id'
p287
I64
sS'http://dbpedia.org/ontology/partner'
p288
I294
sS'http://dbpedia.org/ontology/territory'
p289
I466
sS'http://dbpedia.org/ontology/keyPerson'
p290
I451
sS'http://dbpedia.org/property/aux'
p291
I81
sS'http://dbpedia.org/property/imperialFirst'
p292
I381
sS'http://dbpedia.org/property/janPrecipitationInch'
p293
I339
sS'http://dbpedia.org/property/recorded'
p294
I243
sS'http://dbpedia.org/property/producer'
p295
I28
sS'http://dbpedia.org/ontology/origin'
p296
I289
sS'http://dbpedia.org/ontology/musicComposer'
p297
I56
sS'http://dbpedia.org/property/imageCaption'
p298
I110
sS'http://dbpedia.org/ontology/elevation'
p299
I101
sS'http://dbpedia.org/property/yearPrecipitationMm'
p300
I467
sS'http://dbpedia.org/property/aprHighF'
p301
I304
sS'http://dbpedia.org/ontology/distributor'
p302
I75
sS'http://dbpedia.org/property/julPrecipitationInch'
p303
I345
sS'http://dbpedia.org/property/marRecordLowF'
p304
I492
sS'http://dbpedia.org/property/julMeanC'
p305
I458
sS'http://dbpedia.org/property/pushpinLabelPosition'
p306
I494
sS'http://dbpedia.org/property/febPrecipitationMm'
p307
I350
sS'http://dbpedia.org/property/capital'
p308
I224
sS'http://dbpedia.org/property/julHighC'
p309
I261
sS'http://dbpedia.org/property/julHighF'
p310
I306
sS'http://dbpedia.org/property/constituencyWestminster'
p311
I468
sS'http://dbpedia.org/ontology/stateOfOrigin'
p312
I326
sS'http://dbpedia.org/ontology/deathCause'
p313
I241
sS'http://dbpedia.org/ontology/routeJunction'
p314
I157
sS'http://dbpedia.org/property/placeOfBirth'
p315
I5
sS'http://dbpedia.org/ontology/runtime'
p316
I93
sS'http://dbpedia.org/property/homeTown'
p317
I200
sS'http://dbpedia.org/property/mayMeanC'
p318
I463
sS'http://dbpedia.org/property/decSun'
p319
I388
sS'http://dbpedia.org/ontology/percentageOfAreaWater'
p320
I327
sS'http://dbpedia.org/property/sepPrecipitationMm'
p321
I351
sS'http://dbpedia.org/property/runtime'
p322
I92
sS'http://dbpedia.org/ontology/starring'
p323
I14
sS'http://dbpedia.org/ontology/executiveProducer'
p324
I238
sS'http://dbpedia.org/property/popplace'
p325
I291
sS'http://dbpedia.org/property/founder'
p326
I348
sS'http://dbpedia.org/ontology/governmentType'
p327
I202
sS'http://dbpedia.org/ontology/award'
p328
I295
sS'http://dbpedia.org/property/junHighF'
p329
I299
sS'http://dbpedia.org/property/junHighC'
p330
I265
sS'http://dbpedia.org/property/mayHighC'
p331
I263
sS'http://dbpedia.org/property/yearsactive'
p332
I91
sS'http://dbpedia.org/property/decPrecipitationMm'
p333
I359
sS'http://dbpedia.org/property/mayHighF'
p334
I303
sS'http://dbpedia.org/property/octRecordHighF'
p335
I489
sS'http://www.w3.org/2002/07/owl#differentFrom'
p336
I141
sS'http://dbpedia.org/property/octRecordHighC'
p337
I441
sS'http://dbpedia.org/ontology/utcOffset'
p338
I98
sS'http://dbpedia.org/property/alternativeNames'
p339
I57
sS'http://dbpedia.org/ontology/nearestCity'
p340
I214
sS'http://dbpedia.org/ontology/child'
p341
I186
sS'http://dbpedia.org/property/julRecordLowC'
p342
I426
sS'http://dbpedia.org/property/mayPrecipitationMm'
p343
I355
sS'http://dbpedia.org/property/julRecordLowF'
p344
I500
sS'http://dbpedia.org/property/marMeanC'
p345
I454
sS'http://dbpedia.org/property/yearPrecipitationInch'
p346
I475
sS'http://dbpedia.org/property/office'
p347
I406
sS'http://dbpedia.org/property/aprLowC'
p348
I275
sS'http://dbpedia.org/property/state'
p349
I229
sS'http://dbpedia.org/ontology/voice'
p350
I288
sS'http://dbpedia.org/property/deathPlace'
p351
I25
sS'http://dbpedia.org/property/narrator'
p352
I234
sS'http://dbpedia.org/property/foundation'
p353
I184
sS'http://dbpedia.org/ontology/region'
p354
I175
sS'http://dbpedia.org/property/sepRecordLowC'
p355
I424
sS'http://dbpedia.org/property/sepRecordLowF'
p356
I497
sS'http://dbpedia.org/property/postcodeArea'
p357
I471
sS'http://dbpedia.org/ontology/almaMater'
p358
I196
sS'http://dbpedia.org/property/seat'
p359
I254
sS'http://dbpedia.org/property/junPrecipitationInch'
p360
I346
sS'http://dbpedia.org/ontology/portrayer'
p361
I131
sS'http://dbpedia.org/ontology/type'
p362
I80
sS'http://dbpedia.org/property/julPrecipitationDays'
p363
I368
sS'http://dbpedia.org/property/augSun'
p364
I396
sS'http://dbpedia.org/ontology/knownFor'
p365
I230
sS'http://dbpedia.org/property/creator'
p366
I286
sS'http://dbpedia.org/property/janRecordHighC'
p367
I447
sS'http://dbpedia.org/property/utcOffset'
p368
I76
sS'http://dbpedia.org/property/janRecordHighF'
p369
I481
sS'http://dbpedia.org/property/octPrecipitationDays'
p370
I373
sS'http://dbpedia.org/ontology/regionServed'
p371
I227
sS'http://dbpedia.org/property/novLowF'
p372
I308
sS'http://dbpedia.org/property/junSun'
p373
I398
sS'http://dbpedia.org/property/novLowC'
p374
I274
sS'http://dbpedia.org/ontology/areaCode'
p375
I70
sS'http://dbpedia.org/property/aprHighC'
p376
I267
sS'http://dbpedia.org/property/augPrecipitationMm'
p377
I361
sS'http://dbpedia.org/property/mapCaption'
p378
I102
sS'http://dbpedia.org/property/imageShield'
p379
I450
sS'http://dbpedia.org/ontology/areaTotal'
p380
I72
sS'http://dbpedia.org/ontology/recordedIn'
p381
I166
sS'http://dbpedia.org/ontology/guest'
p382
I117
sS'http://dbpedia.org/ontology/birthYear'
p383
I11
sS'http://dbpedia.org/property/marLowF'
p384
I317
sS'http://dbpedia.org/property/marLowC'
p385
I273
sS'http://dbpedia.org/property/pushpinMapCaption'
p386
I253
sS'http://dbpedia.org/property/gross'
p387
I133
sS'http://dbpedia.org/ontology/state'
p388
I333
sS'http://dbpedia.org/property/shipBuilder'
p389
I435
sS'http://dbpedia.org/ontology/deathYear'
p390
I42
sS'http://dbpedia.org/ontology/artist'
p391
I210
sS'http://dbpedia.org/property/febRecordLowC'
p392
I430
sS'http://dbpedia.org/property/febRecordLowF'
p393
I496
sS'http://dbpedia.org/property/leaderTitle'
p394
I108
sS'http://www.w3.org/2000/01/rdf-schema#seeAlso'
p395
I59
sS'http://dbpedia.org/property/unitPrecipitationDays'
p396
I470
sS'http://dbpedia.org/ontology/musicalArtist'
p397
I414
sS'http://dbpedia.org/property/years'
p398
I292
sS'http://dbpedia.org/property/coordinatesType'
p399
I209
sS'http://dbpedia.org/property/aprRecordHighC'
p400
I444
sS'http://dbpedia.org/property/population'
p401
I287
sS'http://dbpedia.org/property/aprRecordHighF'
p402
I484
sS'http://dbpedia.org/property/mapsize'
p403
I149
sS'http://dbpedia.org/property/augRecordHighC'
p404
I439
sS'http://dbpedia.org/property/augRecordHighF'
p405
I488
sS'http://dbpedia.org/property/home'
p406
I151
sS'http://dbpedia.org/ontology/author'
p407
I400
sS'http://dbpedia.org/property/width'
p408
I249
sS'http://www.w3.org/2003/01/geo/wgs84_pos#long'
p409
I50
sS'http://dbpedia.org/property/sepHighF'
p410
I305
sS'http://dbpedia.org/ontology/activeYearsStartYear'
p411
I20
sS'http://dbpedia.org/property/country'
p412
I47
sS'http://dbpedia.org/ontology/billed'
p413
I297
sS'http://dbpedia.org/property/mayPrecipitationDays'
p414
I366
sS'http://dbpedia.org/property/county'
p415
I449
sS'http://dbpedia.org/ontology/deathPlace'
p416
I23
sS'http://dbpedia.org/property/sepMeanC'
p417
I460
sS'http://dbpedia.org/ontology/genre'
p418
I217
sS'http://dbpedia.org/property/east'
p419
I152
sS'http://dbpedia.org/property/directedby'
p420
I221
sS'http://dbpedia.org/property/southeast'
p421
I182
sS'http://dbpedia.org/ontology/birthPlace'
p422
I4
sS'http://dbpedia.org/property/name'
p423
I3
sS'http://dbpedia.org/property/yearRecordLowC'
p424
I476
sS'http://dbpedia.org/property/junRecordLowC'
p425
I429
sS'http://dbpedia.org/property/executiveProducer'
p426
I334
sS'http://dbpedia.org/property/junRecordLowF'
p427
I499
sS'http://dbpedia.org/property/junRecordHighF'
p428
I486
sS'http://dbpedia.org/property/latitude'
p429
I315
sS'http://dbpedia.org/ontology/associatedMusicalArtist'
p430
I169
sS'http://dbpedia.org/property/mayRecordHighF'
p431
I485
sS'http://dbpedia.org/property/junRecordHighC'
p432
I445
sS'http://dbpedia.org/ontology/parent'
p433
I208
sS'http://dbpedia.org/property/marPrecipitationInch'
p434
I343
sS'http://dbpedia.org/property/residence'
p435
I61
sS'http://dbpedia.org/ontology/spouse'
p436
I27
sS'http://dbpedia.org/property/metricFirst'
p437
I245
sS'http://dbpedia.org/property/birthname'
p438
I218
sS'http://dbpedia.org/property/populationDensityKm'
p439
I109
sS'http://dbpedia.org/property/background'
p440
I232
sS'http://dbpedia.org/property/establishedDate'
p441
I121
sS'http://dbpedia.org/property/billed'
p442
I385
sS'http://www.w3.org/1999/02/22-rdf-syntax-ns#type'
p443
I1
sS'http://dbpedia.org/ontology/foundingDate'
p444
I220
sS'http://dbpedia.org/property/music'
p445
I51
sS'http://dbpedia.org/ontology/ground'
p446
I167
sS'http://dbpedia.org/property/starring'
p447
I15
sS'http://dbpedia.org/property/restingPlace'
p448
I178
sS'http://dbpedia.org/property/relatives'
p449
I239
sS'http://dbpedia.org/property/octMeanC'
p450
I453
sS'http://dbpedia.org/property/novSun'
p451
I387
sS'http://dbpedia.org/property/longew'
p452
I87
sS'http://dbpedia.org/ontology/leaderName'
p453
I203
sS'http://dbpedia.org/property/janMeanC'
p454
I462
sS'http://xmlns.com/foaf/0.1/surname'
p455
I10
sS'http://dbpedia.org/property/popEstAsOf'
p456
I260
sS'http://dbpedia.org/property/febPrecipitationDays'
p457
I364
sS'http://dbpedia.org/property/terminusA'
p458
I401
sS'http://dbpedia.org/property/terminusB'
p459
I436
sS'http://dbpedia.org/property/augLowC'
p460
I270
sS'http://dbpedia.org/property/augLowF'
p461
I322
sS'http://dbpedia.org/ontology/foundationPlace'
p462
I161
sS'http://dbpedia.org/property/northwest'
p463
I179
sS'http://dbpedia.org/property/timezone'
p464
I77
sS'http://dbpedia.org/property/utcOffsetDst'
p465
I103
sS'http://dbpedia.org/property/junLowF'
p466
I320
sS'http://dbpedia.org/property/novHighF'
p467
I301
sS'http://dbpedia.org/property/sepLowC'
p468
I279
sS'http://dbpedia.org/ontology/editing'
p469
I143
sS'http://dbpedia.org/property/novHighC'
p470
I268
sS'http://dbpedia.org/property/junLowC'
p471
I278
sS'http://dbpedia.org/property/sepLowF'
p472
I314
sS'http://dbpedia.org/property/octRecordLowC'
p473
I434
sS'http://dbpedia.org/property/octPrecipitationMm'
p474
I354
sS'http://dbpedia.org/ontology/leaderTitle'
p475
I111
sS'http://dbpedia.org/property/map'
p476
I469
sS'http://dbpedia.org/property/postalCodeType'
p477
I105
sS'http://dbpedia.org/property/locations'
p478
I376
sS'http://dbpedia.org/property/language'
p479
I82
sS'http://dbpedia.org/ontology/creator'
p480
I290
sS'http://dbpedia.org/ontology/populationPlace'
p481
I219
sS'http://dbpedia.org/property/voices'
p482
I384
sS'http://dbpedia.org/property/cityServed'
p483
I173
sS'http://dbpedia.org/ontology/headquarter'
p484
I153
sS'http://dbpedia.org/property/areaTotalSqMi'
p485
I139
sS'http://dbpedia.org/ontology/language'
p486
I250
sS'http://dbpedia.org/property/locale'
p487
I119
sS'http://dbpedia.org/property/populationTotal'
p488
I89
sS'http://dbpedia.org/ontology/assembly'
p489
I347
sS'http://dbpedia.org/property/composer'
p490
I402
sS'http://dbpedia.org/property/augHighC'
p491
I262
sS'http://dbpedia.org/property/unitPref'
p492
I163
sS'http://dbpedia.org/ontology/motto'
p493
I236
sS'http://dbpedia.org/property/augHighF'
p494
I307
sS'http://dbpedia.org/property/maySun'
p495
I397
sS'http://dbpedia.org/property/novRecordHighF'
p496
I477
sS'http://dbpedia.org/property/janPrecipitationDays'
p497
I371
sS'http://dbpedia.org/ontology/largestCity'
p498
I490
sS'http://dbpedia.org/property/novRecordHighC'
p499
I442
sS'http://dbpedia.org/property/west'
p500
I146
s.