(dp0
S'http://dbpedia.org/property/origin'
p1
I67
sS'http://dbpedia.org/ontology/Legislature'
p2
I1046
sS'-http://dbpedia.org/property/birthDate'
p3
cnumpy.core.multiarray
scalar
p4
(cnumpy
dtype
p5
(S'i8'
p6
I0
I1
tp7
Rp8
(I3
S'<'
p9
NNNI-1
I-1
I0
tp10
bS'\x0b\x02\x00\x00\x00\x00\x00\x00'
p11
tp12
Rp13
sS'-http://dbpedia.org/ontology/foundingDate'
p14
g4
(g8
S'\xd1\x02\x00\x00\x00\x00\x00\x00'
p15
tp16
Rp17
sS'-http://dbpedia.org/ontology/territory'
p18
g4
(g8
S'\xc7\x03\x00\x00\x00\x00\x00\x00'
p19
tp20
Rp21
sS'-http://dbpedia.org/property/mayPrecipitationMm'
p22
g4
(g8
S'X\x03\x00\x00\x00\x00\x00\x00'
p23
tp24
Rp25
sS'http://dbpedia.org/ontology/BeautyQueen'
p26
I1016
sS'-http://dbpedia.org/property/subdivisionType'
p27
g4
(g8
S'D\x02\x00\x00\x00\x00\x00\x00'
p28
tp29
Rp30
sS'-http://dbpedia.org/ontology/narrator'
p31
g4
(g8
S'\xc1\x02\x00\x00\x00\x00\x00\x00'
p32
tp33
Rp34
sS'-http://dbpedia.org/property/decHighF'
p35
g4
(g8
S'#\x03\x00\x00\x00\x00\x00\x00'
p36
tp37
Rp38
sS'-http://dbpedia.org/property/janLowC'
p39
g4
(g8
S'\x04\x03\x00\x00\x00\x00\x00\x00'
p40
tp41
Rp42
sS'http://dbpedia.org/property/sepRecordHighF'
p43
I478
sS'-http://dbpedia.org/property/sepHighF'
p44
g4
(g8
S'&\x03\x00\x00\x00\x00\x00\x00'
p45
tp46
Rp47
sS'-http://dbpedia.org/property/imageMap'
p48
g4
(g8
S'X\x02\x00\x00\x00\x00\x00\x00'
p49
tp50
Rp51
sS'http://dbpedia.org/property/sepRecordHighC'
p52
I440
sS'http://dbpedia.org/ontology/routeEnd'
p53
I137
sS'-http://dbpedia.org/property/sepHighC'
p54
g4
(g8
S'\xfd\x02\x00\x00\x00\x00\x00\x00'
p55
tp56
Rp57
sS'http://dbpedia.org/property/dateOfBirth'
p58
I13
sS'-http://dbpedia.org/property/populationDensitySqMi'
p59
g4
(g8
S'\x94\x02\x00\x00\x00\x00\x00\x00'
p60
tp61
Rp62
sS'-http://dbpedia.org/ontology/city'
p63
g4
(g8
S'1\x02\x00\x00\x00\x00\x00\x00'
p64
tp65
Rp66
sS'-http://dbpedia.org/property/population'
p67
g4
(g8
S'\x14\x03\x00\x00\x00\x00\x00\x00'
p68
tp69
Rp70
sS'http://dbpedia.org/property/blank1Name'
p71
I138
sS'http://dbpedia.org/property/janRecordHighF'
p72
I481
sS'http://dbpedia.org/ontology/birthName'
p73
I29
sS'http://dbpedia.org/ontology/isPartOf'
p74
I43
sS'http://dbpedia.org/ontology/nationality'
p75
I240
sS'-http://dbpedia.org/property/janMeanC'
p76
g4
(g8
S'\xc3\x03\x00\x00\x00\x00\x00\x00'
p77
tp78
Rp79
sS'http://dbpedia.org/property/marRecordHighF'
p80
I483
sS'http://dbpedia.org/property/gnd'
p81
I413
sS'http://dbpedia.org/property/hometown'
p82
I191
sS'http://www.w3.org/2003/01/geo/wgs84_pos#lat'
p83
I49
sS'-http://dbpedia.org/property/imageFlag'
p84
g4
(g8
S'\xc3\x02\x00\x00\x00\x00\x00\x00'
p85
tp86
Rp87
sS'http://dbpedia.org/property/imageSeal'
p88
I246
sS'http://dbpedia.org/ontology/percentageOfAreaWater'
p89
I327
sS'http://dbpedia.org/property/siteCityst'
p90
I242
sS'-http://dbpedia.org/ontology/releaseDate'
p91
g4
(g8
S'\xc6\x03\x00\x00\x00\x00\x00\x00'
p92
tp93
Rp94
sS'-http://dbpedia.org/ontology/district'
p95
g4
(g8
S'\x1a\x03\x00\x00\x00\x00\x00\x00'
p96
tp97
Rp98
sS'-http://dbpedia.org/ontology/spouse'
p99
g4
(g8
S'\x10\x02\x00\x00\x00\x00\x00\x00'
p100
tp101
Rp102
sS'-http://dbpedia.org/property/imageSkyline'
p103
g4
(g8
S'h\x02\x00\x00\x00\x00\x00\x00'
p104
tp105
Rp106
sS'http://dbpedia.org/property/nationality'
p107
I164
sS'-http://dbpedia.org/ontology/editing'
p108
g4
(g8
S'\x84\x02\x00\x00\x00\x00\x00\x00'
p109
tp110
Rp111
sS'http://dbpedia.org/property/venue'
p112
I225
sS'-http://dbpedia.org/property/language'
p113
g4
(g8
S'G\x02\x00\x00\x00\x00\x00\x00'
p114
tp115
Rp116
sS'-http://dbpedia.org/property/populationAsOf'
p117
g4
(g8
S'C\x02\x00\x00\x00\x00\x00\x00'
p118
tp119
Rp120
sS'http://dbpedia.org/ontology/Building'
p121
I1020
sS'http://dbpedia.org/property/yearsactive'
p122
I91
sS'http://dbpedia.org/ontology/district'
p123
I293
sS'-http://dbpedia.org/ontology/foundationPlace'
p124
g4
(g8
S'\x96\x02\x00\x00\x00\x00\x00\x00'
p125
tp126
Rp127
sS'http://dbpedia.org/property/shipNamesake'
p128
I328
sS'http://dbpedia.org/property/homeTown'
p129
I200
sS'-http://dbpedia.org/property/label'
p130
g4
(g8
S'\xb7\x02\x00\x00\x00\x00\x00\x00'
p131
tp132
Rp133
sS'http://dbpedia.org/property/areaCode'
p134
I95
sS'http://dbpedia.org/ontology/BroadcastNetwork'
p135
I1018
sS'-http://dbpedia.org/ontology/routeStart'
p136
g4
(g8
S'}\x02\x00\x00\x00\x00\x00\x00'
p137
tp138
Rp139
sS'http://dbpedia.org/ontology/TelevisionShow'
p140
I1082
sS'http://dbpedia.org/property/city'
p141
I53
sS'http://dbpedia.org/ontology/Organisation'
p142
I1057
sS'http://dbpedia.org/property/novRecordLowF'
p143
I495
sS'-http://dbpedia.org/property/birthPlace'
p144
g4
(g8
S'\xfb\x01\x00\x00\x00\x00\x00\x00'
p145
tp146
Rp147
sS'-http://dbpedia.org/property/julMeanC'
p148
g4
(g8
S'\xbf\x03\x00\x00\x00\x00\x00\x00'
p149
tp150
Rp151
sS'http://dbpedia.org/property/novRecordLowC'
p152
I423
sS'http://dbpedia.org/property/map'
p153
I469
sS'http://dbpedia.org/ontology/University'
p154
I1086
sS'-http://dbpedia.org/property/decHighC'
p155
g4
(g8
S'\x02\x03\x00\x00\x00\x00\x00\x00'
p156
tp157
Rp158
sS'http://dbpedia.org/ontology/spokenIn'
p159
I383
sS'http://dbpedia.org/property/screenplay'
p160
I176
sS'http://dbpedia.org/ontology/Village'
p161
I1087
sS'http://dbpedia.org/ontology/viafId'
p162
I16
sS'http://dbpedia.org/property/dateOfDeath'
p163
I40
sS'-http://dbpedia.org/property/home'
p164
g4
(g8
S'\x8c\x02\x00\x00\x00\x00\x00\x00'
p165
tp166
Rp167
sS'http://www.ontologydesignpatterns.org/ont/dul/DUL.owl#SocialPerson'
p168
I1105
sS'http://dbpedia.org/property/deathCause'
p169
I212
sS'-http://dbpedia.org/ontology/activeYearsEndYear'
p170
g4
(g8
S'3\x02\x00\x00\x00\x00\x00\x00'
p171
tp172
Rp173
sS'-http://dbpedia.org/property/mayLowF'
p174
g4
(g8
S'4\x03\x00\x00\x00\x00\x00\x00'
p175
tp176
Rp177
sS'-http://dbpedia.org/ontology/routeJunction'
p178
g4
(g8
S'\x92\x02\x00\x00\x00\x00\x00\x00'
p179
tp180
Rp181
sS'http://dbpedia.org/property/birthDate'
p182
I22
sS'http://dbpedia.org/property/hostCity'
p183
I404
sS'-http://dbpedia.org/property/placeOfDeath'
p184
g4
(g8
S'\r\x02\x00\x00\x00\x00\x00\x00'
p185
tp186
Rp187
sS'http://dbpedia.org/ontology/individualisedGnd'
p188
I408
sS'http://purl.org/dc/elements/1.1/description'
p189
I7
sS'http://dbpedia.org/property/febSun'
p190
I393
sS'http://dbpedia.org/property/settlementType'
p191
I94
sS'-http://dbpedia.org/property/mayPrecipitationDays'
p192
g4
(g8
S'c\x03\x00\x00\x00\x00\x00\x00'
p193
tp194
Rp195
sS'http://dbpedia.org/ontology/activeYearsEndYear'
p196
I62
sS'http://dbpedia.org/ontology/PokerPlayer'
p197
I1063
sS'http://dbpedia.org/property/founder'
p198
I348
sS'-http://dbpedia.org/ontology/garrison'
p199
g4
(g8
S'\xcc\x02\x00\x00\x00\x00\x00\x00'
p200
tp201
Rp202
sS'-http://dbpedia.org/property/stadium'
p203
g4
(g8
S'\x89\x02\x00\x00\x00\x00\x00\x00'
p204
tp205
Rp206
sS'http://dbpedia.org/ontology/producer'
p207
I26
sS'http://dbpedia.org/ontology/lccnId'
p208
I325
sS'-http://dbpedia.org/ontology/deathYear'
p209
g4
(g8
S'\x1f\x02\x00\x00\x00\x00\x00\x00'
p210
tp211
Rp212
sS'http://dbpedia.org/property/west'
p213
I146
sS'http://dbpedia.org/property/areaLandSqMi'
p214
I154
sS'http://dbpedia.org/ontology/FigureSkater'
p215
I1035
sS'-http://dbpedia.org/property/novHighF'
p216
g4
(g8
S'"\x03\x00\x00\x00\x00\x00\x00'
p217
tp218
Rp219
sS'http://dbpedia.org/property/areaWaterSqMi'
p220
I155
sS'-http://dbpedia.org/property/distributor'
p221
g4
(g8
S'?\x02\x00\x00\x00\x00\x00\x00'
p222
tp223
Rp224
sS'-http://dbpedia.org/property/febHighF'
p225
g4
(g8
S'*\x03\x00\x00\x00\x00\x00\x00'
p226
tp227
Rp228
sS'-http://dbpedia.org/property/sepSun'
p229
g4
(g8
S'{\x03\x00\x00\x00\x00\x00\x00'
p230
tp231
Rp232
sS'http://dbpedia.org/property/junMeanC'
p233
I459
sS'http://dbpedia.org/property/partner'
p234
I252
sS'http://dbpedia.org/property/birthPlace'
p235
I6
sS'http://dbpedia.org/property/populationDensitySqMi'
p236
I159
sS'http://dbpedia.org/property/keyPeople'
p237
I416
sS'http://dbpedia.org/property/artist'
p238
I181
sS'-http://dbpedia.org/property/parents'
p239
g4
(g8
S'\xba\x02\x00\x00\x00\x00\x00\x00'
p240
tp241
Rp242
sS'http://dbpedia.org/property/populationDemonym'
p243
I411
sS'http://dbpedia.org/ontology/Region'
p244
I1070
sS'-http://dbpedia.org/ontology/viafId'
p245
g4
(g8
S'\x05\x02\x00\x00\x00\x00\x00\x00'
p246
tp247
Rp248
sS'-http://dbpedia.org/property/novMeanC'
p249
g4
(g8
S'\xbc\x03\x00\x00\x00\x00\x00\x00'
p250
tp251
Rp252
sS'http://dbpedia.org/ontology/areaLand'
p253
I123
sS'-http://dbpedia.org/ontology/largestCity'
p254
g4
(g8
S'\xdf\x03\x00\x00\x00\x00\x00\x00'
p255
tp256
Rp257
sS'http://dbpedia.org/property/aprPrecipitationDays'
p258
I365
sS'http://dbpedia.org/property/pushpinMap'
p259
I213
sS'http://dbpedia.org/ontology/MilitaryPerson'
p260
I1051
sS'http://dbpedia.org/ontology/Artist'
p261
I1010
sS'http://dbpedia.org/ontology/Album'
p262
I1007
sS'-http://dbpedia.org/property/country'
p263
g4
(g8
S'$\x02\x00\x00\x00\x00\x00\x00'
p264
tp265
Rp266
sS'http://dbpedia.org/ontology/locationCountry'
p267
I473
sS'http://dbpedia.org/property/mayPrecipitationInch'
p268
I340
sS'-http://dbpedia.org/property/mayHighC'
p269
g4
(g8
S'\xfc\x02\x00\x00\x00\x00\x00\x00'
p270
tp271
Rp272
sS'http://dbpedia.org/property/precipitationColour'
p273
I329
sS'http://schema.org/Movie'
p274
I1098
sS'http://dbpedia.org/ontology/composer'
p275
I296
sS'http://dbpedia.org/property/marRecordLowC'
p276
I433
sS'http://dbpedia.org/property/singleLine'
p277
I174
sS'http://dbpedia.org/property/julPrecipitationInch'
p278
I345
sS'http://dbpedia.org/property/north'
p279
I144
sS'-http://dbpedia.org/ontology/gross'
p280
g4
(g8
S'{\x02\x00\x00\x00\x00\x00\x00'
p281
tp282
Rp283
sS'-http://dbpedia.org/property/postalCode'
p284
g4
(g8
S'V\x02\x00\x00\x00\x00\x00\x00'
p285
tp286
Rp287
sS'-http://dbpedia.org/property/areaWaterPercent'
p288
g4
(g8
S'\x97\x03\x00\x00\x00\x00\x00\x00'
p289
tp290
Rp291
sS'http://dbpedia.org/property/junSun'
p292
I398
sS'-http://dbpedia.org/property/sepRecordLowC'
p293
g4
(g8
S'\x9d\x03\x00\x00\x00\x00\x00\x00'
p294
tp295
Rp296
sS'http://dbpedia.org/property/areaMagnitude'
p297
I417
sS'http://dbpedia.org/ontology/spouse'
p298
I27
sS'-http://dbpedia.org/property/junSun'
p299
g4
(g8
S'\x83\x03\x00\x00\x00\x00\x00\x00'
p300
tp301
Rp302
sS'http://dbpedia.org/property/host'
p303
I425
sS'http://dbpedia.org/property/garrison'
p304
I233
sS'http://dbpedia.org/property/imageSize'
p305
I195
sS'http://dbpedia.org/ontology/deathPlace'
p306
I23
sS'-http://dbpedia.org/property/gross'
p307
g4
(g8
S'z\x02\x00\x00\x00\x00\x00\x00'
p308
tp309
Rp310
sS'http://dbpedia.org/ontology/Country'
p311
I1030
sS'-http://dbpedia.org/property/place'
p312
g4
(g8
S'\xa1\x02\x00\x00\x00\x00\x00\x00'
p313
tp314
Rp315
sS'http://dbpedia.org/property/augMeanC'
p316
I452
sS'http://dbpedia.org/property/augHighF'
p317
I307
sS'-http://dbpedia.org/ontology/associatedBand'
p318
g4
(g8
S'\x9d\x02\x00\x00\x00\x00\x00\x00'
p319
tp320
Rp321
sS'-http://dbpedia.org/property/decPrecipitationMm'
p322
g4
(g8
S'\\\x03\x00\x00\x00\x00\x00\x00'
p323
tp324
Rp325
sS'http://dbpedia.org/property/postalCode'
p326
I97
sS'-http://dbpedia.org/property/state'
p327
g4
(g8
S'\xda\x02\x00\x00\x00\x00\x00\x00'
p328
tp329
Rp330
sS'-http://dbpedia.org/property/marLowF'
p331
g4
(g8
S'2\x03\x00\x00\x00\x00\x00\x00'
p332
tp333
Rp334
sS'-http://dbpedia.org/property/music'
p335
g4
(g8
S'(\x02\x00\x00\x00\x00\x00\x00'
p336
tp337
Rp338
sS'http://dbpedia.org/property/junPrecipitationDays'
p339
I367
sS'http://dbpedia.org/ontology/ComicsCreator'
p340
I1026
sS'http://dbpedia.org/ontology/Person'
p341
I1060
sS'http://dbpedia.org/ontology/populationTotalRanking'
p342
I421
sS'http://dbpedia.org/ontology/Species'
p343
I1080
sS'-http://dbpedia.org/property/align'
p344
g4
(g8
S'\x8c\x03\x00\x00\x00\x00\x00\x00'
p345
tp346
Rp347
sS'-http://dbpedia.org/ontology/foundedBy'
p348
g4
(g8
S'\x8e\x03\x00\x00\x00\x00\x00\x00'
p349
tp350
Rp351
sS'http://dbpedia.org/property/marRecordHighC'
p352
I437
sS'http://dbpedia.org/ontology/RecordLabel'
p353
I1069
sS'http://dbpedia.org/property/guests'
p354
I73
sS'-http://dbpedia.org/property/longm'
p355
g4
(g8
S'H\x02\x00\x00\x00\x00\x00\x00'
p356
tp357
Rp358
sS'http://dbpedia.org/ontology/capital'
p359
I330
sS'-http://purl.org/dc/elements/1.1/description'
p360
g4
(g8
S'\xfc\x01\x00\x00\x00\x00\x00\x00'
p361
tp362
Rp363
sS'-http://dbpedia.org/ontology/keyPerson'
p364
g4
(g8
S'\xb8\x03\x00\x00\x00\x00\x00\x00'
p365
tp366
Rp367
sS'http://www.wikidata.org/entity/Q3957'
p368
I1121
sS'http://www.w3.org/2003/01/geo/wgs84_pos#SpatialThing'
p369
I1107
sS'http://dbpedia.org/ontology/budget'
p370
I171
sS'-http://dbpedia.org/property/lccn'
p371
g4
(g8
S'R\x03\x00\x00\x00\x00\x00\x00'
p372
tp373
Rp374
sS'-http://dbpedia.org/property/mapCaption'
p375
g4
(g8
S'[\x02\x00\x00\x00\x00\x00\x00'
p376
tp377
Rp378
sS'http://dbpedia.org/property/blankInfo'
p379
I156
sS'-http://dbpedia.org/ontology/populationTotal'
p380
g4
(g8
S'/\x02\x00\x00\x00\x00\x00\x00'
p381
tp382
Rp383
sS'http://dbpedia.org/property/centre'
p384
I237
sS'http://dbpedia.org/ontology/relative'
p385
I222
sS'-http://dbpedia.org/property/relatives'
p386
g4
(g8
S'\xe4\x02\x00\x00\x00\x00\x00\x00'
p387
tp388
Rp389
sS'http://dbpedia.org/ontology/GridironFootballPlayer'
p390
I1040
sS'http://dbpedia.org/property/blankName'
p391
I128
sS'http://dbpedia.org/property/locationTown'
p392
I256
sS'-http://dbpedia.org/property/decPrecipitationDays'
p393
g4
(g8
S'l\x03\x00\x00\x00\x00\x00\x00'
p394
tp395
Rp396
sS'http://dbpedia.org/ontology/genre'
p397
I217
sS'-http://dbpedia.org/ontology/occupation'
p398
g4
(g8
S'\x07\x02\x00\x00\x00\x00\x00\x00'
p399
tp400
Rp401
sS'-http://dbpedia.org/property/yearRecordLowC'
p402
g4
(g8
S'\xd1\x03\x00\x00\x00\x00\x00\x00'
p403
tp404
Rp405
sS'http://dbpedia.org/ontology/Model'
p406
I1052
sS'http://dbpedia.org/property/areaTotalSqMi'
p407
I139
sS'-http://dbpedia.org/property/maySun'
p408
g4
(g8
S'\x82\x03\x00\x00\x00\x00\x00\x00'
p409
tp410
Rp411
sS'http://dbpedia.org/ontology/Broadcaster'
p412
I1019
sS'http://dbpedia.org/property/yearHighC'
p413
I378
sS'http://dbpedia.org/property/fightingOutOf'
p414
I363
sS'http://dbpedia.org/ontology/EthnicGroup'
p415
I1032
sS'http://dbpedia.org/property/yearsActive'
p416
I35
sS'-http://dbpedia.org/property/janPrecipitationMm'
p417
g4
(g8
S'V\x03\x00\x00\x00\x00\x00\x00'
p418
tp419
Rp420
sS'http://dbpedia.org/property/rtitle'
p421
I216
sS'-http://dbpedia.org/property/area'
p422
g4
(g8
S'\x95\x02\x00\x00\x00\x00\x00\x00'
p423
tp424
Rp425
sS'http://dbpedia.org/property/marPrecipitationDays'
p426
I370
sS'http://dbpedia.org/property/octSun'
p427
I391
sS'-http://dbpedia.org/property/blankInfo'
p428
g4
(g8
S'\x91\x02\x00\x00\x00\x00\x00\x00'
p429
tp430
Rp431
sS'http://dbpedia.org/ontology/FictionalCharacter'
p432
I1034
sS'http://dbpedia.org/property/headquarters'
p433
I116
sS'http://dbpedia.org/property/aprRecordLowF'
p434
I498
sS'http://dbpedia.org/ontology/City'
p435
I1023
sS'-http://dbpedia.org/property/address'
p436
g4
(g8
S'\xb1\x02\x00\x00\x00\x00\x00\x00'
p437
tp438
Rp439
sS'http://dbpedia.org/property/aprRecordLowC'
p440
I422
sS'-http://dbpedia.org/property/cinematography'
p441
g4
(g8
S'4\x02\x00\x00\x00\x00\x00\x00'
p442
tp443
Rp444
sS'http://dbpedia.org/ontology/RadioHost'
p445
I1068
sS'-http://dbpedia.org/property/imageSize'
p446
g4
(g8
S'\xb8\x02\x00\x00\x00\x00\x00\x00'
p447
tp448
Rp449
sS'http://dbpedia.org/ontology/Group'
p450
I1041
sS'http://www.wikidata.org/entity/Q1092563'
p451
I1108
sS'http://dbpedia.org/property/mayHighC'
p452
I263
sS'http://schema.org/CreativeWork'
p453
I1097
sS'-http://dbpedia.org/ontology/birthName'
p454
g4
(g8
S'\x12\x02\x00\x00\x00\x00\x00\x00'
p455
tp456
Rp457
sS'http://dbpedia.org/property/augPrecipitationDays'
p458
I369
sS'http://dbpedia.org/property/dialCode'
p459
I479
sS'-http://dbpedia.org/property/octSun'
p460
g4
(g8
S'|\x03\x00\x00\x00\x00\x00\x00'
p461
tp462
Rp463
sS'http://dbpedia.org/property/southwest'
p464
I180
sS'http://dbpedia.org/property/mapsize'
p465
I149
sS'http://dbpedia.org/property/aprPrecipitationInch'
p466
I344
sS'http://dbpedia.org/ontology/associatedBand'
p467
I168
sS'http://dbpedia.org/property/stadium'
p468
I148
sS'http://www.wikidata.org/entity/Q515'
p469
I1127
sS'http://dbpedia.org/ontology/Publisher'
p470
I1066
sS'http://dbpedia.org/property/marHighF'
p471
I298
sS'http://dbpedia.org/property/cities'
p472
I377
sS'http://dbpedia.org/property/almaMater'
p473
I162
sS'-http://dbpedia.org/property/marLowC'
p474
g4
(g8
S'\x06\x03\x00\x00\x00\x00\x00\x00'
p475
tp476
Rp477
sS'http://dbpedia.org/property/marHighC'
p478
I266
sS'-http://dbpedia.org/ontology/stateOfOrigin'
p479
g4
(g8
S';\x03\x00\x00\x00\x00\x00\x00'
p480
tp481
Rp482
sS'http://dbpedia.org/property/mayHighF'
p483
I303
sS'http://dbpedia.org/property/place'
p484
I172
sS'-http://dbpedia.org/property/octRecordLowC'
p485
g4
(g8
S'\xa7\x03\x00\x00\x00\x00\x00\x00'
p486
tp487
Rp488
sS'-http://dbpedia.org/ontology/areaLand'
p489
g4
(g8
S'p\x02\x00\x00\x00\x00\x00\x00'
p490
tp491
Rp492
sS'-http://dbpedia.org/ontology/locatedInArea'
p493
g4
(g8
S'\xc2\x02\x00\x00\x00\x00\x00\x00'
p494
tp495
Rp496
sS'http://dbpedia.org/ontology/MemberOfParliament'
p497
I1050
sS'-http://www.w3.org/2002/07/owl#differentFrom'
p498
g4
(g8
S'\x82\x02\x00\x00\x00\x00\x00\x00'
p499
tp500
Rp501
sS'http://dbpedia.org/property/areaLandKm'
p502
I147
sS'http://dbpedia.org/property/occupation'
p503
I19
sS'-http://dbpedia.org/ontology/background'
p504
g4
(g8
S'\xdc\x02\x00\x00\x00\x00\x00\x00'
p505
tp506
Rp507
sS'http://dbpedia.org/property/caption'
p508
I17
sS'http://dbpedia.org/property/spouse'
p509
I21
sS'http://dbpedia.org/property/popplace'
p510
I291
sS'http://dbpedia.org/property/octRecordHighF'
p511
I489
sS'http://dbpedia.org/ontology/Comedian'
p512
I1024
sS'http://dbpedia.org/property/populationEst'
p513
I284
sS'http://dbpedia.org/ontology/Island'
p514
I1045
sS'-http://dbpedia.org/property/marPrecipitationDays'
p515
g4
(g8
S'g\x03\x00\x00\x00\x00\x00\x00'
p516
tp517
Rp518
sS'http://dbpedia.org/property/cinematography'
p519
I63
sS'-http://dbpedia.org/ontology/country'
p520
g4
(g8
S'\x1a\x02\x00\x00\x00\x00\x00\x00'
p521
tp522
Rp523
sS'-http://dbpedia.org/property/areaTotalKm'
p524
g4
(g8
S'Y\x02\x00\x00\x00\x00\x00\x00'
p525
tp526
Rp527
sS'-http://dbpedia.org/property/cityServed'
p528
g4
(g8
S'\xa2\x02\x00\x00\x00\x00\x00\x00'
p529
tp530
Rp531
sS'http://dbpedia.org/property/latns'
p532
I88
sS'http://dbpedia.org/property/octRecordHighC'
p533
I441
sS'http://dbpedia.org/property/birthName'
p534
I34
sS'http://dbpedia.org/property/sepPrecipitationInch'
p535
I338
sS'http://dbpedia.org/property/hqCity'
p536
I419
sS'http://dbpedia.org/property/novMeanC'
p537
I455
sS'http://dbpedia.org/ontology/ScreenWriter'
p538
I1074
sS'http://dbpedia.org/ontology/Location'
p539
I1047
sS'http://dbpedia.org/property/type'
p540
I285
sS'http://dbpedia.org/property/yearLowC'
p541
I380
sS'-http://dbpedia.org/ontology/routeEnd'
p542
g4
(g8
S'~\x02\x00\x00\x00\x00\x00\x00'
p543
tp544
Rp545
sS'http://dbpedia.org/ontology/deathDate'
p546
I41
sS'-http://dbpedia.org/property/augMeanC'
p547
g4
(g8
S'\xb9\x03\x00\x00\x00\x00\x00\x00'
p548
tp549
Rp550
sS'-http://dbpedia.org/property/yearLowC'
p551
g4
(g8
S'q\x03\x00\x00\x00\x00\x00\x00'
p552
tp553
Rp554
sS'http://dbpedia.org/property/gross'
p555
I133
sS'-http://dbpedia.org/ontology/populationMetro'
p556
g4
(g8
S'\xed\x02\x00\x00\x00\x00\x00\x00'
p557
tp558
Rp559
sS'-http://dbpedia.org/property/marPrecipitationInch'
p560
g4
(g8
S'L\x03\x00\x00\x00\x00\x00\x00'
p561
tp562
Rp563
sS'http://dbpedia.org/property/title'
p564
I36
sS'http://dbpedia.org/property/subdivisionType'
p565
I79
sS'http://dbpedia.org/property/postcodeDistrict'
p566
I472
sS'http://dbpedia.org/ontology/ComedyGroup'
p567
I1025
sS'http://dbpedia.org/property/julRecordHighC'
p568
I438
sS'http://www.wikidata.org/entity/Q82955'
p569
I1130
sS'http://dbpedia.org/property/julRecordHighF'
p570
I487
sS'http://dbpedia.org/property/octPrecipitationInch'
p571
I337
sS'-http://dbpedia.org/property/governmentType'
p572
g4
(g8
S'\xae\x02\x00\x00\x00\x00\x00\x00'
p573
tp574
Rp575
sS'http://dbpedia.org/property/parents'
p576
I197
sS'http://www.wikidata.org/entity/Q386724'
p577
I1120
sS'http://xmlns.com/foaf/0.1/name'
p578
I2
sS'http://dbpedia.org/ontology/locationCity'
p579
I118
sS'http://dbpedia.org/ontology/TelevisionEpisode'
p580
I1081
sS'http://dbpedia.org/property/decSun'
p581
I388
sS'http://dbpedia.org/ontology/occupation'
p582
I18
sS'http://dbpedia.org/property/placeOfDeath'
p583
I24
sS'http://dbpedia.org/property/junRecordHighF'
p584
I486
sS'-http://www.georss.org/georss/point'
p585
g4
(g8
S'%\x02\x00\x00\x00\x00\x00\x00'
p586
tp587
Rp588
sS'http://dbpedia.org/ontology/Boxer'
p589
I1017
sS'-http://dbpedia.org/property/birthName'
p590
g4
(g8
S'\x17\x02\x00\x00\x00\x00\x00\x00'
p591
tp592
Rp593
sS'http://dbpedia.org/property/junHighF'
p594
I299
sS'-http://dbpedia.org/ontology/birthYear'
p595
g4
(g8
S'\x00\x02\x00\x00\x00\x00\x00\x00'
p596
tp597
Rp598
sS'-http://dbpedia.org/ontology/state'
p599
g4
(g8
S'B\x03\x00\x00\x00\x00\x00\x00'
p600
tp601
Rp602
sS'-http://dbpedia.org/ontology/restingPlace'
p603
g4
(g8
S'`\x02\x00\x00\x00\x00\x00\x00'
p604
tp605
Rp606
sS'-http://dbpedia.org/ontology/assembly'
p607
g4
(g8
S'P\x03\x00\x00\x00\x00\x00\x00'
p608
tp609
Rp610
sS'http://dbpedia.org/property/novLowC'
p611
I274
sS'http://dbpedia.org/property/story'
p612
I379
sS'-http://dbpedia.org/property/years'
p613
g4
(g8
S'\x19\x03\x00\x00\x00\x00\x00\x00'
p614
tp615
Rp616
sS'http://dbpedia.org/ontology/TennisPlayer'
p617
I1084
sS'http://schema.org/Country'
p618
I1096
sS'-http://dbpedia.org/property/founder'
p619
g4
(g8
S'Q\x03\x00\x00\x00\x00\x00\x00'
p620
tp621
Rp622
sS'-http://dbpedia.org/property/southwest'
p623
g4
(g8
S'\xa9\x02\x00\x00\x00\x00\x00\x00'
p624
tp625
Rp626
sS'-http://dbpedia.org/property/yearsactive'
p627
g4
(g8
S'P\x02\x00\x00\x00\x00\x00\x00'
p628
tp629
Rp630
sS'-http://dbpedia.org/property/junPrecipitationInch'
p631
g4
(g8
S'O\x03\x00\x00\x00\x00\x00\x00'
p632
tp633
Rp634
sS'http://dbpedia.org/property/religion'
p635
I464
sS'-http://dbpedia.org/property/hqCity'
p636
g4
(g8
S'\x98\x03\x00\x00\x00\x00\x00\x00'
p637
tp638
Rp639
sS'http://dbpedia.org/ontology/narrator'
p640
I204
sS'http://dbpedia.org/property/janLowF'
p641
I323
sS'http://dbpedia.org/ontology/SoccerPlayer'
p642
I1078
sS'http://dbpedia.org/property/assembly'
p643
I403
sS'-http://dbpedia.org/ontology/budget'
p644
g4
(g8
S'\xa0\x02\x00\x00\x00\x00\x00\x00'
p645
tp646
Rp647
sS'http://dbpedia.org/ontology/Royalty'
p648
I1072
sS'http://www.w3.org/2003/01/geo/wgs84_pos#long'
p649
I50
sS'http://dbpedia.org/ontology/Wrestler'
p650
I1091
sS'http://dbpedia.org/property/establishedTitle'
p651
I145
sS'-http://dbpedia.org/ontology/location'
p652
g4
(g8
S'"\x02\x00\x00\x00\x00\x00\x00'
p653
tp654
Rp655
sS'-http://dbpedia.org/property/constituencyWestminster'
p656
g4
(g8
S'\xc9\x03\x00\x00\x00\x00\x00\x00'
p657
tp658
Rp659
sS'-http://dbpedia.org/property/junRecordLowF'
p660
g4
(g8
S'\xe8\x03\x00\x00\x00\x00\x00\x00'
p661
tp662
Rp663
sS'http://dbpedia.org/property/yearPrecipitationInch'
p664
I475
sS'http://dbpedia.org/ontology/releaseDate'
p665
I465
sS'http://www.wikidata.org/entity/Q6256'
p666
I1129
sS'http://dbpedia.org/property/augRecordLowC'
p667
I427
sS'http://dbpedia.org/property/office'
p668
I406
sS'-http://dbpedia.org/property/pushpinLabelPosition'
p669
g4
(g8
S'\xe3\x03\x00\x00\x00\x00\x00\x00'
p670
tp671
Rp672
sS'http://dbpedia.org/ontology/residence'
p673
I66
sS'http://dbpedia.org/property/leaderName'
p674
I104
sS'http://www.wikidata.org/entity/Q14128148'
p675
I1110
sS'http://dbpedia.org/property/imageShield'
p676
I450
sS'http://www.wikidata.org/entity/Q5'
p677
I1126
sS'http://www.georss.org/georss/point'
p678
I48
sS'http://dbpedia.org/property/novPrecipitationInch'
p679
I336
sS'-http://dbpedia.org/ontology/creator'
p680
g4
(g8
S'\x17\x03\x00\x00\x00\x00\x00\x00'
p681
tp682
Rp683
sS'-http://dbpedia.org/property/decSun'
p684
g4
(g8
S'y\x03\x00\x00\x00\x00\x00\x00'
p685
tp686
Rp687
sS'http://www.wikidata.org/entity/Q36180'
p688
I1118
sS'-http://dbpedia.org/ontology/birthPlace'
p689
g4
(g8
S'\xf9\x01\x00\x00\x00\x00\x00\x00'
p690
tp691
Rp692
sS'http://dbpedia.org/ontology/location'
p693
I45
sS'http://dbpedia.org/ontology/Chef'
p694
I1021
sS'-http://dbpedia.org/property/officialName'
p695
g4
(g8
S'K\x02\x00\x00\x00\x00\x00\x00'
p696
tp697
Rp698
sS'-http://dbpedia.org/property/julSun'
p699
g4
(g8
S'z\x03\x00\x00\x00\x00\x00\x00'
p700
tp701
Rp702
sS'-http://dbpedia.org/property/lats'
p703
g4
(g8
S's\x02\x00\x00\x00\x00\x00\x00'
p704
tp705
Rp706
sS'http://dbpedia.org/property/mayLowC'
p707
I276
sS'http://dbpedia.org/property/mayLowF'
p708
I319
sS'http://dbpedia.org/ontology/Magazine'
p709
I1048
sS'http://dbpedia.org/ontology/MartialArtist'
p710
I1049
sS'http://dbpedia.org/property/decRecordHighC'
p711
I443
sS'-http://dbpedia.org/property/latd'
p712
g4
(g8
S':\x02\x00\x00\x00\x00\x00\x00'
p713
tp714
Rp715
sS'http://dbpedia.org/ontology/restingPlace'
p716
I107
sS'http://dbpedia.org/property/decRecordHighF'
p717
I480
sS'-http://dbpedia.org/property/octPrecipitationDays'
p718
g4
(g8
S'j\x03\x00\x00\x00\x00\x00\x00'
p719
tp720
Rp721
sS'http://dbpedia.org/property/area'
p722
I160
sS'-http://dbpedia.org/property/latm'
p723
g4
(g8
S'I\x02\x00\x00\x00\x00\x00\x00'
p724
tp725
Rp726
sS'http://dbpedia.org/property/metricFirst'
p727
I245
sS'-http://dbpedia.org/property/areaCode'
p728
g4
(g8
S'T\x02\x00\x00\x00\x00\x00\x00'
p729
tp730
Rp731
sS'-http://dbpedia.org/property/starring'
p732
g4
(g8
S'\x04\x02\x00\x00\x00\x00\x00\x00'
p733
tp734
Rp735
sS'-http://dbpedia.org/property/postcodeDistrict'
p736
g4
(g8
S'\xcd\x03\x00\x00\x00\x00\x00\x00'
p737
tp738
Rp739
sS'-http://dbpedia.org/property/budget'
p740
g4
(g8
S'\x9f\x02\x00\x00\x00\x00\x00\x00'
p741
tp742
Rp743
sS'-http://dbpedia.org/property/julPrecipitationInch'
p744
g4
(g8
S'N\x03\x00\x00\x00\x00\x00\x00'
p745
tp746
Rp747
sS'-http://dbpedia.org/property/marSun'
p748
g4
(g8
S'\x7f\x03\x00\x00\x00\x00\x00\x00'
p749
tp750
Rp751
sS'http://schema.org/Organization'
p752
I1100
sS'-http://dbpedia.org/ontology/region'
p753
g4
(g8
S'\xa4\x02\x00\x00\x00\x00\x00\x00'
p754
tp755
Rp756
sS'http://dbpedia.org/property/deathDate'
p757
I52
sS'http://www.wikidata.org/entity/Q18127'
p758
I1113
sS'http://dbpedia.org/property/longew'
p759
I87
sS'http://dbpedia.org/property/populationDensityKm'
p760
I109
sS'-http://dbpedia.org/property/aux'
p761
g4
(g8
S'F\x02\x00\x00\x00\x00\x00\x00'
p762
tp763
Rp764
sS'-http://dbpedia.org/property/motto'
p765
g4
(g8
S'\xd7\x02\x00\x00\x00\x00\x00\x00'
p766
tp767
Rp768
sS'http://dbpedia.org/property/febMeanC'
p769
I457
sS'http://dbpedia.org/property/otherNames'
p770
I493
sS'-http://dbpedia.org/property/sepRecordHighF'
p771
g4
(g8
S'\xd3\x03\x00\x00\x00\x00\x00\x00'
p772
tp773
Rp774
sS'http://dbpedia.org/property/decLowF'
p775
I312
sS'-http://dbpedia.org/property/sepRecordHighC'
p776
g4
(g8
S'\xad\x03\x00\x00\x00\x00\x00\x00'
p777
tp778
Rp779
sS'http://dbpedia.org/property/decLowC'
p780
I281
sS'http://dbpedia.org/property/label'
p781
I194
sS'http://dbpedia.org/ontology/hometown'
p782
I55
sS'-http://dbpedia.org/property/director'
p783
g4
(g8
S'\x13\x02\x00\x00\x00\x00\x00\x00'
p784
tp785
Rp786
sS'-http://dbpedia.org/property/county'
p787
g4
(g8
S'\xb6\x03\x00\x00\x00\x00\x00\x00'
p788
tp789
Rp790
sS'-http://dbpedia.org/property/runtime'
p791
g4
(g8
S'Q\x02\x00\x00\x00\x00\x00\x00'
p792
tp793
Rp794
sS'http://dbpedia.org/property/distributor'
p795
I74
sS'-http://dbpedia.org/property/capital'
p796
g4
(g8
S'\xd5\x02\x00\x00\x00\x00\x00\x00'
p797
tp798
Rp799
sS'-http://dbpedia.org/ontology/governmentType'
p800
g4
(g8
S'\xbf\x02\x00\x00\x00\x00\x00\x00'
p801
tp802
Rp803
sS'http://dbpedia.org/property/octLowC'
p804
I277
sS'http://www.ontologydesignpatterns.org/ont/dul/DUL.owl#NaturalPerson'
p805
I1104
sS'http://dbpedia.org/property/state'
p806
I229
sS'-http://dbpedia.org/property/yearsActive'
p807
g4
(g8
S'\x18\x02\x00\x00\x00\x00\x00\x00'
p808
tp809
Rp810
sS'http://dbpedia.org/property/decHighF'
p811
I302
sS'http://dbpedia.org/property/marSun'
p812
I394
sS'-http://dbpedia.org/property/populationDemonym'
p813
g4
(g8
S'\x90\x03\x00\x00\x00\x00\x00\x00'
p814
tp815
Rp816
sS'http://dbpedia.org/property/decHighC'
p817
I269
sS'-http://dbpedia.org/property/southeast'
p818
g4
(g8
S'\xab\x02\x00\x00\x00\x00\x00\x00'
p819
tp820
Rp821
sS'http://dbpedia.org/property/billed'
p822
I385
sS'http://dbpedia.org/ontology/populationMetro'
p823
I248
sS'-http://dbpedia.org/property/junRecordHighF'
p824
g4
(g8
S'\xdb\x03\x00\x00\x00\x00\x00\x00'
p825
tp826
Rp827
sS'-http://dbpedia.org/property/febSun'
p828
g4
(g8
S'~\x03\x00\x00\x00\x00\x00\x00'
p829
tp830
Rp831
sS'http://dbpedia.org/ontology/builder'
p832
I382
sS'http://dbpedia.org/property/janPrecipitationMm'
p833
I353
sS'-http://dbpedia.org/property/junRecordHighC'
p834
g4
(g8
S'\xb2\x03\x00\x00\x00\x00\x00\x00'
p835
tp836
Rp837
sS'-http://dbpedia.org/ontology/knownFor'
p838
g4
(g8
S'\xdb\x02\x00\x00\x00\x00\x00\x00'
p839
tp840
Rp841
sS'-http://dbpedia.org/ontology/education'
p842
g4
(g8
S'\xc4\x02\x00\x00\x00\x00\x00\x00'
p843
tp844
Rp845
sS'http://dbpedia.org/ontology/foundingDate'
p846
I220
sS'http://dbpedia.org/ontology/Settlement'
p847
I1076
sS'-http://dbpedia.org/property/source'
p848
g4
(g8
S'\x9a\x02\x00\x00\x00\x00\x00\x00'
p849
tp850
Rp851
sS'-http://dbpedia.org/property/coordinatesType'
p852
g4
(g8
S'\xc6\x02\x00\x00\x00\x00\x00\x00'
p853
tp854
Rp855
sS'http://dbpedia.org/property/febPrecipitationInch'
p856
I341
sS'http://dbpedia.org/ontology/cinematography'
p857
I90
sS'-http://dbpedia.org/property/imperialFirst'
p858
g4
(g8
S'r\x03\x00\x00\x00\x00\x00\x00'
p859
tp860
Rp861
sS'-http://dbpedia.org/ontology/populationTotalRanking'
p862
g4
(g8
S'\x9a\x03\x00\x00\x00\x00\x00\x00'
p863
tp864
Rp865
sS'-http://dbpedia.org/property/released'
p866
g4
(g8
S'\x10\x03\x00\x00\x00\x00\x00\x00'
p867
tp868
Rp869
sS'http://dbpedia.org/ontology/ChristianBishop'
p870
I1022
sS'http://dbpedia.org/property/janSun'
p871
I392
sS'-http://dbpedia.org/property/elevationFt'
p872
g4
(g8
S'|\x02\x00\x00\x00\x00\x00\x00'
p873
tp874
Rp875
sS'-http://dbpedia.org/property/julPrecipitationMm'
p876
g4
(g8
S']\x03\x00\x00\x00\x00\x00\x00'
p877
tp878
Rp879
sS'http://www.wikidata.org/entity/Q43229'
p880
I1123
sS'-http://dbpedia.org/property/portrayer'
p881
g4
(g8
S'w\x02\x00\x00\x00\x00\x00\x00'
p882
tp883
Rp884
sS'http://dbpedia.org/property/instrument'
p885
I405
sS'-http://dbpedia.org/property/host'
p886
g4
(g8
S'\x9e\x03\x00\x00\x00\x00\x00\x00'
p887
tp888
Rp889
sS'-http://dbpedia.org/property/coordinatesDisplay'
p890
g4
(g8
S'_\x02\x00\x00\x00\x00\x00\x00'
p891
tp892
Rp893
sS'http://dbpedia.org/property/timezoneDst'
p894
I113
sS'http://xmlns.com/foaf/0.1/homepage'
p895
I46
sS'-http://dbpedia.org/property/sepPrecipitationDays'
p896
g4
(g8
S'i\x03\x00\x00\x00\x00\x00\x00'
p897
tp898
Rp899
sS'http://dbpedia.org/property/south'
p900
I132
sS'http://dbpedia.org/property/portrayer'
p901
I130
sS'-http://dbpedia.org/property/mayRecordLowC'
p902
g4
(g8
S'\xa4\x03\x00\x00\x00\x00\x00\x00'
p903
tp904
Rp905
sS'-http://dbpedia.org/property/mayLowC'
p906
g4
(g8
S'\t\x03\x00\x00\x00\x00\x00\x00'
p907
tp908
Rp909
sS'-http://dbpedia.org/property/junPrecipitationMm'
p910
g4
(g8
S'[\x03\x00\x00\x00\x00\x00\x00'
p911
tp912
Rp913
sS'http://dbpedia.org/property/music'
p914
I51
sS'-http://dbpedia.org/property/dateOfDeath'
p915
g4
(g8
S'\x1d\x02\x00\x00\x00\x00\x00\x00'
p916
tp917
Rp918
sS'-http://dbpedia.org/ontology/director'
p919
g4
(g8
S'\x14\x02\x00\x00\x00\x00\x00\x00'
p920
tp921
Rp922
sS'-http://dbpedia.org/property/popEstAsOf'
p923
g4
(g8
S'\xf9\x02\x00\x00\x00\x00\x00\x00'
p924
tp925
Rp926
sS'http://www.wikidata.org/entity/Q13474373'
p927
I1109
sS'http://dbpedia.org/property/febRecordHighF'
p928
I482
sS'-http://dbpedia.org/property/based'
p929
g4
(g8
S'A\x03\x00\x00\x00\x00\x00\x00'
p930
tp931
Rp932
sS'http://dbpedia.org/property/julSun'
p933
I389
sS'http://dbpedia.org/property/nickname'
p934
I211
sS'http://dbpedia.org/property/imagesize'
p935
I124
sS'-http://dbpedia.org/property/longitude'
p936
g4
(g8
S',\x03\x00\x00\x00\x00\x00\x00'
p937
tp938
Rp939
sS'http://dbpedia.org/property/decRecordLowC'
p940
I432
sS'http://dbpedia.org/property/latd'
p941
I69
sS'http://dbpedia.org/property/s'
p942
I420
sS'http://dbpedia.org/property/populationAsOf'
p943
I78
sS'http://schema.org/Place'
p944
I1102
sS'-http://dbpedia.org/property/rtitle'
p945
g4
(g8
S'\xcd\x02\x00\x00\x00\x00\x00\x00'
p946
tp947
Rp948
sS'-http://dbpedia.org/ontology/recordedIn'
p949
g4
(g8
S'\x9b\x02\x00\x00\x00\x00\x00\x00'
p950
tp951
Rp952
sS'-http://dbpedia.org/property/fightingOutOf'
p953
g4
(g8
S'`\x03\x00\x00\x00\x00\x00\x00'
p954
tp955
Rp956
sS'http://dbpedia.org/property/education'
p957
I235
sS'-http://dbpedia.org/ontology/musicComposer'
p958
g4
(g8
S'-\x02\x00\x00\x00\x00\x00\x00'
p959
tp960
Rp961
sS'http://dbpedia.org/property/lccn'
p962
I349
sS'http://dbpedia.org/property/source'
p963
I165
sS'-http://dbpedia.org/property/sepLowC'
p964
g4
(g8
S'\x0c\x03\x00\x00\x00\x00\x00\x00'
p965
tp966
Rp967
sS'http://dbpedia.org/ontology/education'
p968
I207
sS'http://dbpedia.org/ontology/Band'
p969
I1012
sS'http://dbpedia.org/ontology/areaWater'
p970
I127
sS'http://dbpedia.org/property/lats'
p971
I126
sS'-http://dbpedia.org/property/sepLowF'
p972
g4
(g8
S'/\x03\x00\x00\x00\x00\x00\x00'
p973
tp974
Rp975
sS'http://dbpedia.org/property/owner'
p976
I228
sS'-http://dbpedia.org/property/imagesize'
p977
g4
(g8
S'q\x02\x00\x00\x00\x00\x00\x00'
p978
tp979
Rp980
sS'http://dbpedia.org/ontology/broadcastArea'
p981
I201
sS'http://dbpedia.org/property/janHighC'
p982
I257
sS'-http://dbpedia.org/ontology/locationCountry'
p983
g4
(g8
S'\xce\x03\x00\x00\x00\x00\x00\x00'
p984
tp985
Rp986
sS'http://dbpedia.org/property/children'
p987
I54
sS'-http://dbpedia.org/property/religion'
p988
g4
(g8
S'\xc5\x03\x00\x00\x00\x00\x00\x00'
p989
tp990
Rp991
sS'http://dbpedia.org/property/novHighF'
p992
I301
sS'-http://dbpedia.org/property/deathPlace'
p993
g4
(g8
S'\x0e\x02\x00\x00\x00\x00\x00\x00'
p994
tp995
Rp996
sS'http://dbpedia.org/property/elevationFt'
p997
I135
sS'http://dbpedia.org/ontology/foundedBy'
p998
I409
sS'http://www.wikidata.org/entity/Q532'
p999
I1128
sS'-http://dbpedia.org/property/decRecordLowC'
p1000
g4
(g8
S'\xa5\x03\x00\x00\x00\x00\x00\x00'
p1001
tp1002
Rp1003
sS'http://www.wikidata.org/entity/Q215627'
p1004
I1114
sS'-http://dbpedia.org/property/birthname'
p1005
g4
(g8
S'\xcf\x02\x00\x00\x00\x00\x00\x00'
p1006
tp1007
Rp1008
sS'http://dbpedia.org/property/aprPrecipitationMm'
p1009
I357
sS'-http://dbpedia.org/property/locationTown'
p1010
g4
(g8
S'\xf5\x02\x00\x00\x00\x00\x00\x00'
p1011
tp1012
Rp1013
sS'http://dbpedia.org/property/julPrecipitationMm'
p1014
I360
sS'http://dbpedia.org/property/janHighF'
p1015
I310
sS'-http://xmlns.com/foaf/0.1/name'
p1016
g4
(g8
S'\xf7\x01\x00\x00\x00\x00\x00\x00'
p1017
tp1018
Rp1019
sS'http://dbpedia.org/property/subdivisionName'
p1020
I44
sS'-http://dbpedia.org/property/east'
p1021
g4
(g8
S'\x8d\x02\x00\x00\x00\x00\x00\x00'
p1022
tp1023
Rp1024
sS'-http://dbpedia.org/property/octLowC'
p1025
g4
(g8
S'\n\x03\x00\x00\x00\x00\x00\x00'
p1026
tp1027
Rp1028
sS'-http://dbpedia.org/property/education'
p1029
g4
(g8
S'\xe0\x02\x00\x00\x00\x00\x00\x00'
p1030
tp1031
Rp1032
sS'-http://dbpedia.org/property/producer'
p1033
g4
(g8
S'\x11\x02\x00\x00\x00\x00\x00\x00'
p1034
tp1035
Rp1036
sS'http://dbpedia.org/property/aprSun'
p1037
I395
sS'http://dbpedia.org/property/address'
p1038
I188
sS'http://dbpedia.org/property/birthplace'
p1039
I255
sS'-http://dbpedia.org/property/marHighF'
p1040
g4
(g8
S'\x1f\x03\x00\x00\x00\x00\x00\x00'
p1041
tp1042
Rp1043
sS'http://dbpedia.org/property/novPrecipitationMm'
p1044
I362
sS'-http://dbpedia.org/property/restingPlace'
p1045
g4
(g8
S'\xa7\x02\x00\x00\x00\x00\x00\x00'
p1046
tp1047
Rp1048
sS'http://dbpedia.org/property/locationCity'
p1049
I120
sS'http://dbpedia.org/ontology/PopulatedPlace'
p1050
I1065
sS'http://dbpedia.org/property/director'
p1051
I30
sS'-http://dbpedia.org/property/octHighC'
p1052
g4
(g8
S'\xf8\x02\x00\x00\x00\x00\x00\x00'
p1053
tp1054
Rp1055
sS'-http://dbpedia.org/property/octLowF'
p1056
g4
(g8
S'.\x03\x00\x00\x00\x00\x00\x00'
p1057
tp1058
Rp1059
sS'http://dbpedia.org/ontology/ground'
p1060
I167
sS'-http://dbpedia.org/property/office'
p1061
g4
(g8
S'\x8b\x03\x00\x00\x00\x00\x00\x00'
p1062
tp1063
Rp1064
sS'-http://dbpedia.org/property/associatedActs'
p1065
g4
(g8
S'\xac\x02\x00\x00\x00\x00\x00\x00'
p1066
tp1067
Rp1068
sS'http://dbpedia.org/property/sepPrecipitationDays'
p1069
I372
sS'-http://dbpedia.org/property/mayPrecipitationInch'
p1070
g4
(g8
S'I\x03\x00\x00\x00\x00\x00\x00'
p1071
tp1072
Rp1073
sS'http://dbpedia.org/property/ground'
p1074
I189
sS'-http://dbpedia.org/property/julRecordLowC'
p1075
g4
(g8
S'\x9f\x03\x00\x00\x00\x00\x00\x00'
p1076
tp1077
Rp1078
sS'http://dbpedia.org/property/postTown'
p1079
I352
sS'-http://dbpedia.org/property/julRecordLowF'
p1080
g4
(g8
S'\xe9\x03\x00\x00\x00\x00\x00\x00'
p1081
tp1082
Rp1083
sS'-http://dbpedia.org/property/febRecordHighF'
p1084
g4
(g8
S'\xd7\x03\x00\x00\x00\x00\x00\x00'
p1085
tp1086
Rp1087
sS'http://dbpedia.org/ontology/populationDensity'
p1088
I129
sS'http://dbpedia.org/ontology/musicalBand'
p1089
I415
sS'-http://dbpedia.org/property/areaServed'
p1090
g4
(g8
S'\xec\x02\x00\x00\x00\x00\x00\x00'
p1091
tp1092
Rp1093
sS'-http://dbpedia.org/property/yearHighC'
p1094
g4
(g8
S'o\x03\x00\x00\x00\x00\x00\x00'
p1095
tp1096
Rp1097
sS'http://dbpedia.org/property/decPrecipitationDays'
p1098
I375
sS'http://dbpedia.org/property/viaf'
p1099
I244
sS'http://dbpedia.org/ontology/birthPlace'
p1100
I4
sS'http://dbpedia.org/property/placeofburial'
p1101
I331
sS'http://dbpedia.org/ontology/director'
p1102
I31
sS'http://dbpedia.org/property/released'
p1103
I283
sS'http://dbpedia.org/property/augPrecipitationInch'
p1104
I342
sS'http://dbpedia.org/property/areaWaterKm'
p1105
I158
sS'http://dbpedia.org/property/aprLowF'
p1106
I318
sS'-http://dbpedia.org/property/aprLowC'
p1107
g4
(g8
S'\x08\x03\x00\x00\x00\x00\x00\x00'
p1108
tp1109
Rp1110
sS'http://dbpedia.org/property/based'
p1111
I332
sS'http://dbpedia.org/ontology/Athlete'
p1112
I1011
sS'-http://dbpedia.org/property/imageCaption'
p1113
g4
(g8
S'c\x02\x00\x00\x00\x00\x00\x00'
p1114
tp1115
Rp1116
sS'-http://dbpedia.org/ontology/origin'
p1117
g4
(g8
S'\x16\x03\x00\x00\x00\x00\x00\x00'
p1118
tp1119
Rp1120
sS'-http://dbpedia.org/property/blankName'
p1121
g4
(g8
S'u\x02\x00\x00\x00\x00\x00\x00'
p1122
tp1123
Rp1124
sS'http://dbpedia.org/ontology/FormulaOneRacer'
p1125
I1038
sS'http://dbpedia.org/property/after'
p1126
I187
sS'http://dbpedia.org/ontology/place'
p1127
I190
sS'-http://dbpedia.org/property/postTown'
p1128
g4
(g8
S'U\x03\x00\x00\x00\x00\x00\x00'
p1129
tp1130
Rp1131
sS'-http://dbpedia.org/property/aprLowF'
p1132
g4
(g8
S'3\x03\x00\x00\x00\x00\x00\x00'
p1133
tp1134
Rp1135
sS'-http://dbpedia.org/property/longs'
p1136
g4
(g8
S'r\x02\x00\x00\x00\x00\x00\x00'
p1137
tp1138
Rp1139
sS'-http://dbpedia.org/property/augPrecipitationDays'
p1140
g4
(g8
S'f\x03\x00\x00\x00\x00\x00\x00'
p1141
tp1142
Rp1143
sS'http://dbpedia.org/property/nearestCity'
p1144
I192
sS'-http://dbpedia.org/property/aprSun'
p1145
g4
(g8
S'\x80\x03\x00\x00\x00\x00\x00\x00'
p1146
tp1147
Rp1148
sS'-http://dbpedia.org/property/areaMagnitude'
p1149
g4
(g8
S'\x96\x03\x00\x00\x00\x00\x00\x00'
p1150
tp1151
Rp1152
sS'-http://dbpedia.org/property/title'
p1153
g4
(g8
S'\x19\x02\x00\x00\x00\x00\x00\x00'
p1154
tp1155
Rp1156
sS'-http://dbpedia.org/ontology/locationCity'
p1157
g4
(g8
S'k\x02\x00\x00\x00\x00\x00\x00'
p1158
tp1159
Rp1160
sS'-http://dbpedia.org/property/novHighC'
p1161
g4
(g8
S'\x01\x03\x00\x00\x00\x00\x00\x00'
p1162
tp1163
Rp1164
sS'-http://dbpedia.org/property/deathCause'
p1165
g4
(g8
S'\xc9\x02\x00\x00\x00\x00\x00\x00'
p1166
tp1167
Rp1168
sS'http://dbpedia.org/ontology/country'
p1169
I37
sS'http://dbpedia.org/ontology/MotorsportRacer'
p1170
I1053
sS'http://dbpedia.org/property/mayRecordLowC'
p1171
I431
sS'http://dbpedia.org/property/location'
p1172
I32
sS'http://dbpedia.org/property/extra'
p1173
I193
sS'-http://dbpedia.org/property/partner'
p1174
g4
(g8
S'\xf1\x02\x00\x00\x00\x00\x00\x00'
p1175
tp1176
Rp1177
sS'-http://dbpedia.org/ontology/individualisedGnd'
p1178
g4
(g8
S'\x8d\x03\x00\x00\x00\x00\x00\x00'
p1179
tp1180
Rp1181
sS'http://dbpedia.org/property/elevationM'
p1182
I122
sS'http://www.wikidata.org/entity/Q378622'
p1183
I1119
sS'http://dbpedia.org/property/northeast'
p1184
I177
sS'http://dbpedia.org/ontology/leaderName'
p1185
I203
sS'-http://dbpedia.org/ontology/nearestCity'
p1186
g4
(g8
S'\xcb\x02\x00\x00\x00\x00\x00\x00'
p1187
tp1188
Rp1189
sS'http://dbpedia.org/property/janRecordLowF'
p1190
I491
sS'-http://dbpedia.org/property/julRecordHighF'
p1191
g4
(g8
S'\xdc\x03\x00\x00\x00\x00\x00\x00'
p1192
tp1193
Rp1194
sS'http://dbpedia.org/property/aprMeanC'
p1195
I461
sS'http://dbpedia.org/property/janRecordLowC'
p1196
I428
sS'-http://dbpedia.org/property/julRecordHighC'
p1197
g4
(g8
S'\xab\x03\x00\x00\x00\x00\x00\x00'
p1198
tp1199
Rp1200
sS'-http://dbpedia.org/property/shipBuilder'
p1201
g4
(g8
S'\xa8\x03\x00\x00\x00\x00\x00\x00'
p1202
tp1203
Rp1204
sS'http://dbpedia.org/ontology/timeZone'
p1205
I85
sS'http://dbpedia.org/property/destinations'
p1206
I410
sS'http://dbpedia.org/ontology/editing'
p1207
I143
sS'http://dbpedia.org/ontology/Park'
p1208
I1058
sS'http://www.wikidata.org/entity/Q3455524'
p1209
I1117
sS'-http://dbpedia.org/property/seat'
p1210
g4
(g8
S'\xf3\x02\x00\x00\x00\x00\x00\x00'
p1211
tp1212
Rp1213
sS'http://dbpedia.org/property/imageFlag'
p1214
I206
sS'-http://dbpedia.org/ontology/capital'
p1215
g4
(g8
S'?\x03\x00\x00\x00\x00\x00\x00'
p1216
tp1217
Rp1218
sS'http://dbpedia.org/ontology/gross'
p1219
I134
sS'http://dbpedia.org/property/date'
p1220
I142
sS'-http://dbpedia.org/property/pushpinMapCaption'
p1221
g4
(g8
S'\xf2\x02\x00\x00\x00\x00\x00\x00'
p1222
tp1223
Rp1224
sS'-http://dbpedia.org/property/hostCity'
p1225
g4
(g8
S'\x89\x03\x00\x00\x00\x00\x00\x00'
p1226
tp1227
Rp1228
sS'-http://dbpedia.org/property/populationDensityKm'
p1229
g4
(g8
S'b\x02\x00\x00\x00\x00\x00\x00'
p1230
tp1231
Rp1232
sS'http://dbpedia.org/ontology/WrittenWork'
p1233
I1093
sS'-http://dbpedia.org/property/decPrecipitationInch'
p1234
g4
(g8
S'D\x03\x00\x00\x00\x00\x00\x00'
p1235
tp1236
Rp1237
sS'http://dbpedia.org/property/website'
p1238
I65
sS'http://dbpedia.org/ontology/birthDate'
p1239
I12
sS'-http://dbpedia.org/property/areaLandSqMi'
p1240
g4
(g8
S'\x8f\x02\x00\x00\x00\x00\x00\x00'
p1241
tp1242
Rp1243
sS'http://www.wikidata.org/entity/Q33999'
p1244
I1116
sS'http://dbpedia.org/ontology/recordLabel'
p1245
I324
sS'-http://dbpedia.org/property/junMeanC'
p1246
g4
(g8
S'\xc0\x03\x00\x00\x00\x00\x00\x00'
p1247
tp1248
Rp1249
sS'http://dbpedia.org/ontology/Song'
p1250
I1079
sS'-http://dbpedia.org/property/janPrecipitationInch'
p1251
g4
(g8
S'H\x03\x00\x00\x00\x00\x00\x00'
p1252
tp1253
Rp1254
sS'-http://dbpedia.org/ontology/deathCause'
p1255
g4
(g8
S'\xe6\x02\x00\x00\x00\x00\x00\x00'
p1256
tp1257
Rp1258
sS'-http://dbpedia.org/property/latitude'
p1259
g4
(g8
S'0\x03\x00\x00\x00\x00\x00\x00'
p1260
tp1261
Rp1262
sS'-http://dbpedia.org/property/city'
p1263
g4
(g8
S'*\x02\x00\x00\x00\x00\x00\x00'
p1264
tp1265
Rp1266
sS'-http://dbpedia.org/property/map'
p1267
g4
(g8
S'\xca\x03\x00\x00\x00\x00\x00\x00'
p1268
tp1269
Rp1270
sS'http://dbpedia.org/ontology/type'
p1271
I80
sS'-http://dbpedia.org/property/augRecordHighF'
p1272
g4
(g8
S'\xdd\x03\x00\x00\x00\x00\x00\x00'
p1273
tp1274
Rp1275
sS'-http://dbpedia.org/ontology/place'
p1276
g4
(g8
S'\xb3\x02\x00\x00\x00\x00\x00\x00'
p1277
tp1278
Rp1279
sS'-http://dbpedia.org/property/augRecordHighC'
p1280
g4
(g8
S'\xac\x03\x00\x00\x00\x00\x00\x00'
p1281
tp1282
Rp1283
sS'-http://dbpedia.org/property/creator'
p1284
g4
(g8
S'\x13\x03\x00\x00\x00\x00\x00\x00'
p1285
tp1286
Rp1287
sS'-http://dbpedia.org/property/instrument'
p1288
g4
(g8
S'\x8a\x03\x00\x00\x00\x00\x00\x00'
p1289
tp1290
Rp1291
sS'-http://dbpedia.org/property/febLowF'
p1292
g4
(g8
S'1\x03\x00\x00\x00\x00\x00\x00'
p1293
tp1294
Rp1295
sS'-http://dbpedia.org/property/populationEst'
p1296
g4
(g8
S'\x11\x03\x00\x00\x00\x00\x00\x00'
p1297
tp1298
Rp1299
sS'-http://dbpedia.org/property/utcOffsetDst'
p1300
g4
(g8
S'\\\x02\x00\x00\x00\x00\x00\x00'
p1301
tp1302
Rp1303
sS'-http://dbpedia.org/property/febLowC'
p1304
g4
(g8
S'\x05\x03\x00\x00\x00\x00\x00\x00'
p1305
tp1306
Rp1307
sS'http://dbpedia.org/ontology/MusicalArtist'
p1308
I1054
sS'http://dbpedia.org/ontology/alias'
p1309
I39
sS'-http://dbpedia.org/ontology/runtime'
p1310
g4
(g8
S'R\x02\x00\x00\x00\x00\x00\x00'
p1311
tp1312
Rp1313
sS'http://dbpedia.org/property/shortDescription'
p1314
I8
sS'http://dbpedia.org/ontology/PlayboyPlaymate'
p1315
I1062
sS'-http://dbpedia.org/ontology/producer'
p1316
g4
(g8
S'\x0f\x02\x00\x00\x00\x00\x00\x00'
p1317
tp1318
Rp1319
sS'http://dbpedia.org/property/associatedActs'
p1320
I183
sS'-http://dbpedia.org/ontology/cinematography'
p1321
g4
(g8
S'O\x02\x00\x00\x00\x00\x00\x00'
p1322
tp1323
Rp1324
sS'http://dbpedia.org/property/budget'
p1325
I170
sS'http://dbpedia.org/property/sepMeanC'
p1326
I460
sS'http://dbpedia.org/property/julPrecipitationDays'
p1327
I368
sS'-http://dbpedia.org/property/shortDescription'
p1328
g4
(g8
S'\xfd\x01\x00\x00\x00\x00\x00\x00'
p1329
tp1330
Rp1331
sS'-http://dbpedia.org/property/hometown'
p1332
g4
(g8
S'\xb4\x02\x00\x00\x00\x00\x00\x00'
p1333
tp1334
Rp1335
sS'http://dbpedia.org/property/longm'
p1336
I83
sS'-http://dbpedia.org/property/novPrecipitationDays'
p1337
g4
(g8
S'k\x03\x00\x00\x00\x00\x00\x00'
p1338
tp1339
Rp1340
sS'http://dbpedia.org/property/coordinatesDisplay'
p1341
I106
sS'http://dbpedia.org/property/octHighC'
p1342
I259
sS'-http://dbpedia.org/property/northeast'
p1343
g4
(g8
S'\xa6\x02\x00\x00\x00\x00\x00\x00'
p1344
tp1345
Rp1346
sS'http://dbpedia.org/property/octHighF'
p1347
I300
sS'http://dbpedia.org/property/decPrecipitationInch'
p1348
I335
sS'http://dbpedia.org/property/district'
p1349
I412
sS'http://dbpedia.org/property/longd'
p1350
I68
sS'-http://dbpedia.org/ontology/language'
p1351
g4
(g8
S'\xef\x02\x00\x00\x00\x00\x00\x00'
p1352
tp1353
Rp1354
sS'-http://dbpedia.org/property/unitPrecipitationDays'
p1355
g4
(g8
S'\xcb\x03\x00\x00\x00\x00\x00\x00'
p1356
tp1357
Rp1358
sS'http://dbpedia.org/property/awards'
p1359
I474
sS'http://dbpedia.org/property/marPrecipitationMm'
p1360
I356
sS'http://dbpedia.org/property/longs'
p1361
I125
sS'http://schema.org/Person'
p1362
I1101
sS'-http://dbpedia.org/property/genre'
p1363
g4
(g8
S'\xbc\x02\x00\x00\x00\x00\x00\x00'
p1364
tp1365
Rp1366
sS'http://xmlns.com/foaf/0.1/givenName'
p1367
I9
sS'http://dbpedia.org/property/imageMap'
p1368
I99
sS'-http://dbpedia.org/ontology/areaWater'
p1369
g4
(g8
S't\x02\x00\x00\x00\x00\x00\x00'
p1370
tp1371
Rp1372
sS'-http://dbpedia.org/ontology/broadcastArea'
p1373
g4
(g8
S'\xbe\x02\x00\x00\x00\x00\x00\x00'
p1374
tp1375
Rp1376
sS'-http://dbpedia.org/property/octRecordHighC'
p1377
g4
(g8
S'\xae\x03\x00\x00\x00\x00\x00\x00'
p1378
tp1379
Rp1380
sS'-http://dbpedia.org/property/before'
p1381
g4
(g8
S'\xbb\x02\x00\x00\x00\x00\x00\x00'
p1382
tp1383
Rp1384
sS'-http://dbpedia.org/property/augHighC'
p1385
g4
(g8
S'\xfb\x02\x00\x00\x00\x00\x00\x00'
p1386
tp1387
Rp1388
sS'-http://dbpedia.org/ontology/isPartOf'
p1389
g4
(g8
S' \x02\x00\x00\x00\x00\x00\x00'
p1390
tp1391
Rp1392
sS'-http://dbpedia.org/property/augPrecipitationInch'
p1393
g4
(g8
S'K\x03\x00\x00\x00\x00\x00\x00'
p1394
tp1395
Rp1396
sS'http://dbpedia.org/property/before'
p1397
I198
sS'-http://dbpedia.org/property/junLowF'
p1398
g4
(g8
S'5\x03\x00\x00\x00\x00\x00\x00'
p1399
tp1400
Rp1401
sS'http://dbpedia.org/property/octLowF'
p1402
I313
sS'http://www.wikidata.org/entity/Q28389'
p1403
I1115
sS'http://dbpedia.org/ontology/garrison'
p1404
I215
sS'-http://dbpedia.org/ontology/areaCode'
p1405
g4
(g8
S';\x02\x00\x00\x00\x00\x00\x00'
p1406
tp1407
Rp1408
sS'-http://dbpedia.org/property/junLowC'
p1409
g4
(g8
S'\x0b\x03\x00\x00\x00\x00\x00\x00'
p1410
tp1411
Rp1412
sS'-http://dbpedia.org/property/mapsize'
p1413
g4
(g8
S'\x8a\x02\x00\x00\x00\x00\x00\x00'
p1414
tp1415
Rp1416
sS'-http://xmlns.com/foaf/0.1/homepage'
p1417
g4
(g8
S'#\x02\x00\x00\x00\x00\x00\x00'
p1418
tp1419
Rp1420
sS'http://dbpedia.org/property/unitPref'
p1421
I163
sS'http://dbpedia.org/property/areaTotalKm'
p1422
I100
sS'-http://dbpedia.org/property/directedby'
p1423
g4
(g8
S'\xd2\x02\x00\x00\x00\x00\x00\x00'
p1424
tp1425
Rp1426
sS'http://dbpedia.org/ontology/Food'
p1427
I1037
sS'-http://dbpedia.org/property/garrison'
p1428
g4
(g8
S'\xde\x02\x00\x00\x00\x00\x00\x00'
p1429
tp1430
Rp1431
sS'-http://dbpedia.org/property/residence'
p1432
g4
(g8
S'2\x02\x00\x00\x00\x00\x00\x00'
p1433
tp1434
Rp1435
sS'http://dbpedia.org/ontology/NascarDriver'
p1436
I1055
sS'-http://dbpedia.org/property/latns'
p1437
g4
(g8
S'M\x02\x00\x00\x00\x00\x00\x00'
p1438
tp1439
Rp1440
sS'http://dbpedia.org/ontology/RacingDriver'
p1441
I1067
sS'http://dbpedia.org/ontology/routeStart'
p1442
I136
sS'-http://dbpedia.org/property/julHighC'
p1443
g4
(g8
S'\xfa\x02\x00\x00\x00\x00\x00\x00'
p1444
tp1445
Rp1446
sS'-http://dbpedia.org/property/birthplace'
p1447
g4
(g8
S'\xf4\x02\x00\x00\x00\x00\x00\x00'
p1448
tp1449
Rp1450
sS'-http://dbpedia.org/property/octRecordHighF'
p1451
g4
(g8
S'\xde\x03\x00\x00\x00\x00\x00\x00'
p1452
tp1453
Rp1454
sS'-http://dbpedia.org/property/julHighF'
p1455
g4
(g8
S"'\x03\x00\x00\x00\x00\x00\x00"
p1456
tp1457
Rp1458
sS'http://dbpedia.org/ontology/background'
p1459
I231
sS'http://dbpedia.org/property/east'
p1460
I152
sS'http://dbpedia.org/ontology/locatedInArea'
p1461
I205
sS'http://dbpedia.org/property/febHighF'
p1462
I309
sS'-http://dbpedia.org/property/octMeanC'
p1463
g4
(g8
S'\xba\x03\x00\x00\x00\x00\x00\x00'
p1464
tp1465
Rp1466
sS'http://dbpedia.org/property/febHighC'
p1467
I258
sS'-http://dbpedia.org/property/dateOfBirth'
p1468
g4
(g8
S'\x02\x02\x00\x00\x00\x00\x00\x00'
p1469
tp1470
Rp1471
sS'http://dbpedia.org/property/region'
p1472
I112
sS'http://dbpedia.org/ontology/activeYearsStartYear'
p1473
I20
sS'http://dbpedia.org/ontology/birthYear'
p1474
I11
sS'http://dbpedia.org/ontology/postalCode'
p1475
I71
sS'-http://dbpedia.org/property/sepPrecipitationMm'
p1476
g4
(g8
S'T\x03\x00\x00\x00\x00\x00\x00'
p1477
tp1478
Rp1479
sS'http://dbpedia.org/property/febLowF'
p1480
I316
sS'-http://dbpedia.org/property/keyPeople'
p1481
g4
(g8
S'\x95\x03\x00\x00\x00\x00\x00\x00'
p1482
tp1483
Rp1484
sS'http://dbpedia.org/ontology/writer'
p1485
I33
sS'-http://dbpedia.org/property/p'
p1486
g4
(g8
S'\x84\x03\x00\x00\x00\x00\x00\x00'
p1487
tp1488
Rp1489
sS'http://dbpedia.org/property/febLowC'
p1490
I272
sS'-http://dbpedia.org/property/yearPrecipitationMm'
p1491
g4
(g8
S'\xc8\x03\x00\x00\x00\x00\x00\x00'
p1492
tp1493
Rp1494
sS'http://dbpedia.org/ontology/Road'
p1495
I1071
sS'-http://dbpedia.org/property/otherNames'
p1496
g4
(g8
S'\xe2\x03\x00\x00\x00\x00\x00\x00'
p1497
tp1498
Rp1499
sS'-http://dbpedia.org/property/occupation'
p1500
g4
(g8
S'\x08\x02\x00\x00\x00\x00\x00\x00'
p1501
tp1502
Rp1503
sS'http://dbpedia.org/property/areaServed'
p1504
I247
sS'http://xmlns.com/foaf/0.1/nick'
p1505
I223
sS'http://dbpedia.org/property/populationRank'
p1506
I386
sS'-http://dbpedia.org/property/nearestCity'
p1507
g4
(g8
S'\xb5\x02\x00\x00\x00\x00\x00\x00'
p1508
tp1509
Rp1510
sS'http://dbpedia.org/property/popEstAsOf'
p1511
I260
sS'http://dbpedia.org/property/janLowC'
p1512
I271
sS'-http://dbpedia.org/property/febPrecipitationInch'
p1513
g4
(g8
S'J\x03\x00\x00\x00\x00\x00\x00'
p1514
tp1515
Rp1516
sS'http://dbpedia.org/property/officialName'
p1517
I86
sS'http://dbpedia.org/property/julLowC'
p1518
I280
sS'-http://dbpedia.org/ontology/relative'
p1519
g4
(g8
S'\xd3\x02\x00\x00\x00\x00\x00\x00'
p1520
tp1521
Rp1522
sS'http://dbpedia.org/property/julLowF'
p1523
I321
sS'-http://dbpedia.org/property/octHighF'
p1524
g4
(g8
S'!\x03\x00\x00\x00\x00\x00\x00'
p1525
tp1526
Rp1527
sS'http://dbpedia.org/property/align'
p1528
I407
sS'-http://dbpedia.org/property/website'
p1529
g4
(g8
S'6\x02\x00\x00\x00\x00\x00\x00'
p1530
tp1531
Rp1532
sS'http://dbpedia.org/property/id'
p1533
I64
sS'-http://dbpedia.org/property/story'
p1534
g4
(g8
S'p\x03\x00\x00\x00\x00\x00\x00'
p1535
tp1536
Rp1537
sS'http://dbpedia.org/ontology/partner'
p1538
I294
sS'http://dbpedia.org/ontology/Single'
p1539
I1077
sS'http://dbpedia.org/ontology/territory'
p1540
I466
sS'http://schema.org/AdministrativeArea'
p1541
I1094
sS'-http://dbpedia.org/ontology/areaTotal'
p1542
g4
(g8
S'=\x02\x00\x00\x00\x00\x00\x00'
p1543
tp1544
Rp1545
sS'-http://dbpedia.org/property/imageSeal'
p1546
g4
(g8
S'\xeb\x02\x00\x00\x00\x00\x00\x00'
p1547
tp1548
Rp1549
sS'-http://dbpedia.org/ontology/alias'
p1550
g4
(g8
S'\x1c\x02\x00\x00\x00\x00\x00\x00'
p1551
tp1552
Rp1553
sS'http://dbpedia.org/ontology/keyPerson'
p1554
I451
sS'http://dbpedia.org/property/aux'
p1555
I81
sS'http://dbpedia.org/property/governmentType'
p1556
I185
sS'http://dbpedia.org/property/imperialFirst'
p1557
I381
sS'http://dbpedia.org/property/placeOfBirth'
p1558
I5
sS'http://www.wikidata.org/entity/Q483501'
p1559
I1124
sS'http://dbpedia.org/property/janPrecipitationInch'
p1560
I339
sS'http://dbpedia.org/property/timezone'
p1561
I77
sS'-http://dbpedia.org/property/novPrecipitationMm'
p1562
g4
(g8
S'_\x03\x00\x00\x00\x00\x00\x00'
p1563
tp1564
Rp1565
sS'http://dbpedia.org/property/recorded'
p1566
I243
sS'http://dbpedia.org/property/producer'
p1567
I28
sS'http://dbpedia.org/ontology/origin'
p1568
I289
sS'http://dbpedia.org/ontology/Politician'
p1569
I1064
sS'http://dbpedia.org/ontology/musicComposer'
p1570
I56
sS'http://dbpedia.org/property/imageCaption'
p1571
I110
sS'http://dbpedia.org/ontology/elevation'
p1572
I101
sS'http://dbpedia.org/property/motto'
p1573
I226
sS'-http://dbpedia.org/property/imageShield'
p1574
g4
(g8
S'\xb7\x03\x00\x00\x00\x00\x00\x00'
p1575
tp1576
Rp1577
sS'http://dbpedia.org/property/augLowC'
p1578
I270
sS'http://dbpedia.org/ontology/Continent'
p1579
I1029
sS'-http://dbpedia.org/ontology/timeZone'
p1580
g4
(g8
S'J\x02\x00\x00\x00\x00\x00\x00'
p1581
tp1582
Rp1583
sS'http://dbpedia.org/ontology/distributor'
p1584
I75
sS'-http://dbpedia.org/property/west'
p1585
g4
(g8
S'\x87\x02\x00\x00\x00\x00\x00\x00'
p1586
tp1587
Rp1588
sS'-http://dbpedia.org/property/augPrecipitationMm'
p1589
g4
(g8
S'^\x03\x00\x00\x00\x00\x00\x00'
p1590
tp1591
Rp1592
sS'http://dbpedia.org/ontology/VoiceActor'
p1593
I1088
sS'http://dbpedia.org/property/marRecordLowF'
p1594
I492
sS'-http://dbpedia.org/property/placeOfBirth'
p1595
g4
(g8
S'\xfa\x01\x00\x00\x00\x00\x00\x00'
p1596
tp1597
Rp1598
sS'http://dbpedia.org/ontology/FashionDesigner'
p1599
I1033
sS'-http://dbpedia.org/ontology/portrayer'
p1600
g4
(g8
S'x\x02\x00\x00\x00\x00\x00\x00'
p1601
tp1602
Rp1603
sS'-http://dbpedia.org/property/voices'
p1604
g4
(g8
S'u\x03\x00\x00\x00\x00\x00\x00'
p1605
tp1606
Rp1607
sS'http://dbpedia.org/property/pushpinLabelPosition'
p1608
I494
sS'-http://dbpedia.org/property/settlementType'
p1609
g4
(g8
S'S\x02\x00\x00\x00\x00\x00\x00'
p1610
tp1611
Rp1612
sS'http://dbpedia.org/property/febPrecipitationMm'
p1613
I350
sS'-http://dbpedia.org/ontology/deathDate'
p1614
g4
(g8
S'\x1e\x02\x00\x00\x00\x00\x00\x00'
p1615
tp1616
Rp1617
sS'http://dbpedia.org/property/capital'
p1618
I224
sS'http://dbpedia.org/property/julHighC'
p1619
I261
sS'-http://dbpedia.org/property/janRecordHighC'
p1620
g4
(g8
S'\xb4\x03\x00\x00\x00\x00\x00\x00'
p1621
tp1622
Rp1623
sS'-http://dbpedia.org/property/janRecordHighF'
p1624
g4
(g8
S'\xd6\x03\x00\x00\x00\x00\x00\x00'
p1625
tp1626
Rp1627
sS'http://dbpedia.org/property/julHighF'
p1628
I306
sS'http://dbpedia.org/property/constituencyWestminster'
p1629
I468
sS'-http://xmlns.com/foaf/0.1/nick'
p1630
g4
(g8
S'\xd4\x02\x00\x00\x00\x00\x00\x00'
p1631
tp1632
Rp1633
sS'http://dbpedia.org/ontology/deathCause'
p1634
I241
sS'http://dbpedia.org/ontology/routeJunction'
p1635
I157
sS'-http://dbpedia.org/property/febRecordLowF'
p1636
g4
(g8
S'\xe5\x03\x00\x00\x00\x00\x00\x00'
p1637
tp1638
Rp1639
sS'http://dbpedia.org/ontology/AdultActor'
p1640
I1004
sS'http://dbpedia.org/ontology/HollywoodCartoon'
p1641
I1043
sS'http://dbpedia.org/ontology/knownFor'
p1642
I230
sS'http://dbpedia.org/ontology/runtime'
p1643
I93
sS'-http://dbpedia.org/property/junRecordLowC'
p1644
g4
(g8
S'\xa2\x03\x00\x00\x00\x00\x00\x00'
p1645
tp1646
Rp1647
sS'-http://dbpedia.org/property/utcOffset'
p1648
g4
(g8
S'A\x02\x00\x00\x00\x00\x00\x00'
p1649
tp1650
Rp1651
sS'-http://dbpedia.org/property/aprPrecipitationInch'
p1652
g4
(g8
S'M\x03\x00\x00\x00\x00\x00\x00'
p1653
tp1654
Rp1655
sS'-http://dbpedia.org/property/northwest'
p1656
g4
(g8
S'\xa8\x02\x00\x00\x00\x00\x00\x00'
p1657
tp1658
Rp1659
sS'-http://dbpedia.org/property/recorded'
p1660
g4
(g8
S'\xe8\x02\x00\x00\x00\x00\x00\x00'
p1661
tp1662
Rp1663
sS'http://dbpedia.org/ontology/city'
p1664
I60
sS'-http://dbpedia.org/property/areaLandKm'
p1665
g4
(g8
S'\x88\x02\x00\x00\x00\x00\x00\x00'
p1666
tp1667
Rp1668
sS'http://dbpedia.org/property/mayMeanC'
p1669
I463
sS'-http://dbpedia.org/property/janLowF'
p1670
g4
(g8
S'8\x03\x00\x00\x00\x00\x00\x00'
p1671
tp1672
Rp1673
sS'-http://dbpedia.org/ontology/starring'
p1674
g4
(g8
S'\x03\x02\x00\x00\x00\x00\x00\x00'
p1675
tp1676
Rp1677
sS'-http://dbpedia.org/ontology/leaderTitle'
p1678
g4
(g8
S'd\x02\x00\x00\x00\x00\x00\x00'
p1679
tp1680
Rp1681
sS'-http://dbpedia.org/ontology/hometown'
p1682
g4
(g8
S',\x02\x00\x00\x00\x00\x00\x00'
p1683
tp1684
Rp1685
sS'-http://dbpedia.org/ontology/builder'
p1686
g4
(g8
S's\x03\x00\x00\x00\x00\x00\x00'
p1687
tp1688
Rp1689
sS'http://dbpedia.org/property/runtime'
p1690
I92
sS'http://dbpedia.org/ontology/starring'
p1691
I14
sS'http://dbpedia.org/ontology/executiveProducer'
p1692
I238
sS'-http://dbpedia.org/ontology/composer'
p1693
g4
(g8
S'\x1d\x03\x00\x00\x00\x00\x00\x00'
p1694
tp1695
Rp1696
sS'http://dbpedia.org/property/county'
p1697
I449
sS'-http://dbpedia.org/ontology/associatedMusicalArtist'
p1698
g4
(g8
S'\x9e\x02\x00\x00\x00\x00\x00\x00'
p1699
tp1700
Rp1701
sS'http://dbpedia.org/ontology/governmentType'
p1702
I202
sS'http://dbpedia.org/ontology/Place'
p1703
I1061
sS'http://dbpedia.org/ontology/HistoricPlace'
p1704
I1042
sS'http://dbpedia.org/ontology/award'
p1705
I295
sS'-http://dbpedia.org/property/after'
p1706
g4
(g8
S'\xb0\x02\x00\x00\x00\x00\x00\x00'
p1707
tp1708
Rp1709
sS'-http://dbpedia.org/property/decRecordHighC'
p1710
g4
(g8
S'\xb0\x03\x00\x00\x00\x00\x00\x00'
p1711
tp1712
Rp1713
sS'http://dbpedia.org/ontology/Senator'
p1714
I1075
sS'-http://dbpedia.org/property/spouse'
p1715
g4
(g8
S'\n\x02\x00\x00\x00\x00\x00\x00'
p1716
tp1717
Rp1718
sS'-http://dbpedia.org/property/decRecordHighF'
p1719
g4
(g8
S'\xd5\x03\x00\x00\x00\x00\x00\x00'
p1720
tp1721
Rp1722
sS'http://dbpedia.org/property/junHighC'
p1723
I265
sS'-http://dbpedia.org/ontology/leaderName'
p1724
g4
(g8
S'\xc0\x02\x00\x00\x00\x00\x00\x00'
p1725
tp1726
Rp1727
sS'http://dbpedia.org/ontology/Agent'
p1728
I1005
sS'-http://dbpedia.org/property/narrator'
p1729
g4
(g8
S'\xdf\x02\x00\x00\x00\x00\x00\x00'
p1730
tp1731
Rp1732
sS'http://dbpedia.org/property/mapCaption'
p1733
I102
sS'-http://dbpedia.org/ontology/genre'
p1734
g4
(g8
S'\xce\x02\x00\x00\x00\x00\x00\x00'
p1735
tp1736
Rp1737
sS'-http://dbpedia.org/ontology/motto'
p1738
g4
(g8
S'\xe1\x02\x00\x00\x00\x00\x00\x00'
p1739
tp1740
Rp1741
sS'http://dbpedia.org/property/editing'
p1742
I96
sS'http://dbpedia.org/property/populationMetro'
p1743
I251
sS'http://dbpedia.org/property/decPrecipitationMm'
p1744
I359
sS'http://dbpedia.org/property/novPrecipitationDays'
p1745
I374
sS'-http://www.w3.org/2003/01/geo/wgs84_pos#long'
p1746
g4
(g8
S"'\x02\x00\x00\x00\x00\x00\x00"
p1747
tp1748
Rp1749
sS'http://www.wikidata.org/entity/Q141683'
p1750
I1111
sS'http://dbpedia.org/property/writer'
p1751
I38
sS'http://www.w3.org/2002/07/owl#differentFrom'
p1752
I141
sS'-http://dbpedia.org/property/headquarters'
p1753
g4
(g8
S'i\x02\x00\x00\x00\x00\x00\x00'
p1754
tp1755
Rp1756
sS'-http://dbpedia.org/property/julLowF'
p1757
g4
(g8
S'6\x03\x00\x00\x00\x00\x00\x00'
p1758
tp1759
Rp1760
sS'http://dbpedia.org/ontology/TelevisionStation'
p1761
I1083
sS'http://dbpedia.org/ontology/utcOffset'
p1762
I98
sS'http://dbpedia.org/property/alternativeNames'
p1763
I57
sS'http://dbpedia.org/ontology/nearestCity'
p1764
I214
sS'-http://dbpedia.org/ontology/deathPlace'
p1765
g4
(g8
S'\x0c\x02\x00\x00\x00\x00\x00\x00'
p1766
tp1767
Rp1768
sS'http://schema.org/City'
p1769
I1095
sS'http://dbpedia.org/ontology/child'
p1770
I186
sS'-http://dbpedia.org/ontology/populationPlace'
p1771
g4
(g8
S'\xd0\x02\x00\x00\x00\x00\x00\x00'
p1772
tp1773
Rp1774
sS'http://dbpedia.org/property/julRecordLowC'
p1775
I426
sS'-http://dbpedia.org/property/marHighC'
p1776
g4
(g8
S'\xff\x02\x00\x00\x00\x00\x00\x00'
p1777
tp1778
Rp1779
sS'http://dbpedia.org/property/mayPrecipitationMm'
p1780
I355
sS'http://dbpedia.org/property/julRecordLowF'
p1781
I500
sS'http://dbpedia.org/ontology/populationPlace'
p1782
I219
sS'http://dbpedia.org/property/marMeanC'
p1783
I454
sS'-http://dbpedia.org/property/writer'
p1784
g4
(g8
S'\x1b\x02\x00\x00\x00\x00\x00\x00'
p1785
tp1786
Rp1787
sS'-http://dbpedia.org/property/almaMater'
p1788
g4
(g8
S'\x97\x02\x00\x00\x00\x00\x00\x00'
p1789
tp1790
Rp1791
sS'-http://dbpedia.org/property/gnd'
p1792
g4
(g8
S'\x92\x03\x00\x00\x00\x00\x00\x00'
p1793
tp1794
Rp1795
sS'-http://dbpedia.org/property/julPrecipitationDays'
p1796
g4
(g8
S'e\x03\x00\x00\x00\x00\x00\x00'
p1797
tp1798
Rp1799
sS'http://dbpedia.org/property/sepLowF'
p1800
I314
sS'-http://dbpedia.org/property/location'
p1801
g4
(g8
S'\x15\x02\x00\x00\x00\x00\x00\x00'
p1802
tp1803
Rp1804
sS'http://dbpedia.org/property/mayPrecipitationDays'
p1805
I366
sS'-http://dbpedia.org/property/extra'
p1806
g4
(g8
S'\xb6\x02\x00\x00\x00\x00\x00\x00'
p1807
tp1808
Rp1809
sS'-http://dbpedia.org/property/singleLine'
p1810
g4
(g8
S'\xa3\x02\x00\x00\x00\x00\x00\x00'
p1811
tp1812
Rp1813
sS'-http://dbpedia.org/property/sepRecordLowF'
p1814
g4
(g8
S'\xe6\x03\x00\x00\x00\x00\x00\x00'
p1815
tp1816
Rp1817
sS'http://dbpedia.org/property/aprLowC'
p1818
I275
sS'-http://dbpedia.org/property/billed'
p1819
g4
(g8
S'v\x03\x00\x00\x00\x00\x00\x00'
p1820
tp1821
Rp1822
sS'http://dbpedia.org/ontology/voice'
p1823
I288
sS'-http://dbpedia.org/property/foundation'
p1824
g4
(g8
S'\xad\x02\x00\x00\x00\x00\x00\x00'
p1825
tp1826
Rp1827
sS'http://dbpedia.org/property/deathPlace'
p1828
I25
sS'http://dbpedia.org/ontology/Film'
p1829
I1036
sS'http://dbpedia.org/property/narrator'
p1830
I234
sS'http://dbpedia.org/ontology/Wikidata:Q11424'
p1831
I1089
sS'http://dbpedia.org/property/foundation'
p1832
I184
sS'http://dbpedia.org/ontology/region'
p1833
I175
sS'http://dbpedia.org/ontology/largestCity'
p1834
I490
sS'-http://dbpedia.org/property/julLowC'
p1835
g4
(g8
S'\r\x03\x00\x00\x00\x00\x00\x00'
p1836
tp1837
Rp1838
sS'-http://dbpedia.org/property/locale'
p1839
g4
(g8
S'l\x02\x00\x00\x00\x00\x00\x00'
p1840
tp1841
Rp1842
sS'http://dbpedia.org/ontology/CricketGround'
p1843
I1031
sS'http://dbpedia.org/ontology/stateOfOrigin'
p1844
I326
sS'-http://dbpedia.org/property/homeTown'
p1845
g4
(g8
S'\xbd\x02\x00\x00\x00\x00\x00\x00'
p1846
tp1847
Rp1848
sS'http://dbpedia.org/property/sepRecordLowF'
p1849
I497
sS'-http://dbpedia.org/ontology/percentageOfAreaWater'
p1850
g4
(g8
S'<\x03\x00\x00\x00\x00\x00\x00'
p1851
tp1852
Rp1853
sS'http://dbpedia.org/property/postcodeArea'
p1854
I471
sS'-http://dbpedia.org/property/decLowF'
p1855
g4
(g8
S'-\x03\x00\x00\x00\x00\x00\x00'
p1856
tp1857
Rp1858
sS'http://dbpedia.org/ontology/almaMater'
p1859
I196
sS'-http://dbpedia.org/property/decLowC'
p1860
g4
(g8
S'\x0e\x03\x00\x00\x00\x00\x00\x00'
p1861
tp1862
Rp1863
sS'http://dbpedia.org/property/seat'
p1864
I254
sS'http://dbpedia.org/ontology/Congressman'
p1865
I1028
sS'-http://dbpedia.org/property/novRecordHighF'
p1866
g4
(g8
S'\xd2\x03\x00\x00\x00\x00\x00\x00'
p1867
tp1868
Rp1869
sS'-http://dbpedia.org/property/novRecordHighC'
p1870
g4
(g8
S'\xaf\x03\x00\x00\x00\x00\x00\x00'
p1871
tp1872
Rp1873
sS'http://dbpedia.org/property/junPrecipitationInch'
p1874
I346
sS'-http://dbpedia.org/property/width'
p1875
g4
(g8
S'\xee\x02\x00\x00\x00\x00\x00\x00'
p1876
tp1877
Rp1878
sS'http://www.w3.org/2000/01/rdf-schema#seeAlso'
p1879
I59
sS'http://dbpedia.org/ontology/portrayer'
p1880
I131
sS'-http://dbpedia.org/property/awards'
p1881
g4
(g8
S'\xcf\x03\x00\x00\x00\x00\x00\x00'
p1882
tp1883
Rp1884
sS'http://dbpedia.org/ontology/guest'
p1885
I117
sS'-http://dbpedia.org/property/marRecordLowF'
p1886
g4
(g8
S'\xe1\x03\x00\x00\x00\x00\x00\x00'
p1887
tp1888
Rp1889
sS'http://dbpedia.org/ontology/Scientist'
p1890
I1073
sS'http://dbpedia.org/property/coordinatesRegion'
p1891
I140
sS'-http://dbpedia.org/ontology/utcOffset'
p1892
g4
(g8
S'W\x02\x00\x00\x00\x00\x00\x00'
p1893
tp1894
Rp1895
sS'-http://dbpedia.org/property/marRecordLowC'
p1896
g4
(g8
S'\xa6\x03\x00\x00\x00\x00\x00\x00'
p1897
tp1898
Rp1899
sS'-http://dbpedia.org/property/north'
p1900
g4
(g8
S'\x85\x02\x00\x00\x00\x00\x00\x00'
p1901
tp1902
Rp1903
sS'http://dbpedia.org/ontology/AmericanFootballPlayer'
p1904
I1008
sS'-http://dbpedia.org/property/popplace'
p1905
g4
(g8
S'\x18\x03\x00\x00\x00\x00\x00\x00'
p1906
tp1907
Rp1908
sS'-http://www.w3.org/2003/01/geo/wgs84_pos#lat'
p1909
g4
(g8
S'&\x02\x00\x00\x00\x00\x00\x00'
p1910
tp1911
Rp1912
sS'-http://dbpedia.org/property/octPrecipitationMm'
p1913
g4
(g8
S'W\x03\x00\x00\x00\x00\x00\x00'
p1914
tp1915
Rp1916
sS'-http://dbpedia.org/ontology/executiveProducer'
p1917
g4
(g8
S'\xe3\x02\x00\x00\x00\x00\x00\x00'
p1918
tp1919
Rp1920
sS'-http://dbpedia.org/property/s'
p1921
g4
(g8
S'\x99\x03\x00\x00\x00\x00\x00\x00'
p1922
tp1923
Rp1924
sS'http://dbpedia.org/property/augSun'
p1925
I396
sS'-http://dbpedia.org/property/locationCity'
p1926
g4
(g8
S'm\x02\x00\x00\x00\x00\x00\x00'
p1927
tp1928
Rp1929
sS'-http://dbpedia.org/property/novSun'
p1930
g4
(g8
S'x\x03\x00\x00\x00\x00\x00\x00'
p1931
tp1932
Rp1933
sS'-http://dbpedia.org/property/sepMeanC'
p1934
g4
(g8
S'\xc1\x03\x00\x00\x00\x00\x00\x00'
p1935
tp1936
Rp1937
sS'http://dbpedia.org/property/creator'
p1938
I286
sS'http://dbpedia.org/property/janRecordHighC'
p1939
I447
sS'http://dbpedia.org/property/utcOffset'
p1940
I76
sS'-http://dbpedia.org/property/aprPrecipitationMm'
p1941
g4
(g8
S'Z\x03\x00\x00\x00\x00\x00\x00'
p1942
tp1943
Rp1944
sS'http://dbpedia.org/property/octPrecipitationDays'
p1945
I373
sS'http://dbpedia.org/ontology/regionServed'
p1946
I227
sS'http://dbpedia.org/property/marLowF'
p1947
I317
sS'http://xmlns.com/foaf/0.1/Person'
p1948
I1131
sS'http://dbpedia.org/ontology/BasketballPlayer'
p1949
I1015
sS'-http://dbpedia.org/property/dialCode'
p1950
g4
(g8
S'\xd4\x03\x00\x00\x00\x00\x00\x00'
p1951
tp1952
Rp1953
sS'-http://dbpedia.org/ontology/partner'
p1954
g4
(g8
S'\x1b\x03\x00\x00\x00\x00\x00\x00'
p1955
tp1956
Rp1957
sS'-http://dbpedia.org/ontology/artist'
p1958
g4
(g8
S'\xc7\x02\x00\x00\x00\x00\x00\x00'
p1959
tp1960
Rp1961
sS'-http://dbpedia.org/property/artist'
p1962
g4
(g8
S'\xaa\x02\x00\x00\x00\x00\x00\x00'
p1963
tp1964
Rp1965
sS'-http://dbpedia.org/property/owner'
p1966
g4
(g8
S'\xd9\x02\x00\x00\x00\x00\x00\x00'
p1967
tp1968
Rp1969
sS'-http://dbpedia.org/property/febRecordLowC'
p1970
g4
(g8
S'\xa3\x03\x00\x00\x00\x00\x00\x00'
p1971
tp1972
Rp1973
sS'http://dbpedia.org/property/novLowF'
p1974
I308
sS'http://dbpedia.org/ontology/Work'
p1975
I1090
sS'-http://dbpedia.org/property/marPrecipitationMm'
p1976
g4
(g8
S'Y\x03\x00\x00\x00\x00\x00\x00'
p1977
tp1978
Rp1979
sS'-http://dbpedia.org/property/octPrecipitationInch'
p1980
g4
(g8
S'F\x03\x00\x00\x00\x00\x00\x00'
p1981
tp1982
Rp1983
sS'http://dbpedia.org/ontology/areaCode'
p1984
I70
sS'http://dbpedia.org/property/decMeanC'
p1985
I456
sS'-http://dbpedia.org/ontology/populationDensity'
p1986
g4
(g8
S'v\x02\x00\x00\x00\x00\x00\x00'
p1987
tp1988
Rp1989
sS'-http://dbpedia.org/property/children'
p1990
g4
(g8
S'+\x02\x00\x00\x00\x00\x00\x00'
p1991
tp1992
Rp1993
sS'http://dbpedia.org/property/aprHighC'
p1994
I267
sS'http://dbpedia.org/property/augPrecipitationMm'
p1995
I361
sS'-http://dbpedia.org/ontology/lccnId'
p1996
g4
(g8
S':\x03\x00\x00\x00\x00\x00\x00'
p1997
tp1998
Rp1999
sS'-http://dbpedia.org/property/marMeanC'
p2000
g4
(g8
S'\xbb\x03\x00\x00\x00\x00\x00\x00'
p2001
tp2002
Rp2003
sS'-http://dbpedia.org/property/editing'
p2004
g4
(g8
S'U\x02\x00\x00\x00\x00\x00\x00'
p2005
tp2006
Rp2007
sS'http://dbpedia.org/property/longitude'
p2008
I311
sS'-http://dbpedia.org/property/areaWaterKm'
p2009
g4
(g8
S'\x93\x02\x00\x00\x00\x00\x00\x00'
p2010
tp2011
Rp2012
sS'http://dbpedia.org/ontology/areaTotal'
p2013
I72
sS'http://dbpedia.org/ontology/recordedIn'
p2014
I166
sS'-http://dbpedia.org/property/junPrecipitationDays'
p2015
g4
(g8
S'd\x03\x00\x00\x00\x00\x00\x00'
p2016
tp2017
Rp2018
sS'http://dbpedia.org/property/sepLowC'
p2019
I279
sS'http://dbpedia.org/property/yearPrecipitationMm'
p2020
I467
sS'http://dbpedia.org/ontology/Town'
p2021
I1085
sS'-http://dbpedia.org/property/nationality'
p2022
g4
(g8
S'\x99\x02\x00\x00\x00\x00\x00\x00'
p2023
tp2024
Rp2025
sS'http://dbpedia.org/property/imageSkyline'
p2026
I115
sS'-http://dbpedia.org/ontology/nationality'
p2027
g4
(g8
S'\xe5\x02\x00\x00\x00\x00\x00\x00'
p2028
tp2029
Rp2030
sS'-http://dbpedia.org/property/id'
p2031
g4
(g8
S'5\x02\x00\x00\x00\x00\x00\x00'
p2032
tp2033
Rp2034
sS'-http://dbpedia.org/property/establishedTitle'
p2035
g4
(g8
S'\x86\x02\x00\x00\x00\x00\x00\x00'
p2036
tp2037
Rp2038
sS'-http://dbpedia.org/property/janPrecipitationDays'
p2039
g4
(g8
S'h\x03\x00\x00\x00\x00\x00\x00'
p2040
tp2041
Rp2042
sS'http://dbpedia.org/property/aprHighF'
p2043
I304
sS'http://www.wikidata.org/entity/Q41298'
p2044
I1122
sS'http://dbpedia.org/property/marLowC'
p2045
I273
sS'http://dbpedia.org/property/pushpinMapCaption'
p2046
I253
sS'-http://dbpedia.org/property/sepPrecipitationInch'
p2047
g4
(g8
S'G\x03\x00\x00\x00\x00\x00\x00'
p2048
tp2049
Rp2050
sS'http://dbpedia.org/ontology/state'
p2051
I333
sS'http://dbpedia.org/property/shipBuilder'
p2052
I435
sS'-http://dbpedia.org/property/precipitationColour'
p2053
g4
(g8
S'>\x03\x00\x00\x00\x00\x00\x00'
p2054
tp2055
Rp2056
sS'http://dbpedia.org/ontology/deathYear'
p2057
I42
sS'-http://dbpedia.org/property/novLowC'
p2058
g4
(g8
S'\x07\x03\x00\x00\x00\x00\x00\x00'
p2059
tp2060
Rp2061
sS'-http://dbpedia.org/property/novLowF'
p2062
g4
(g8
S')\x03\x00\x00\x00\x00\x00\x00'
p2063
tp2064
Rp2065
sS'http://dbpedia.org/ontology/artist'
p2066
I210
sS'-http://dbpedia.org/property/longew'
p2067
g4
(g8
S'L\x02\x00\x00\x00\x00\x00\x00'
p2068
tp2069
Rp2070
sS'-http://dbpedia.org/property/aprRecordLowF'
p2071
g4
(g8
S'\xe7\x03\x00\x00\x00\x00\x00\x00'
p2072
tp2073
Rp2074
sS'-http://dbpedia.org/property/aprRecordLowC'
p2075
g4
(g8
S'\x9b\x03\x00\x00\x00\x00\x00\x00'
p2076
tp2077
Rp2078
sS'http://dbpedia.org/property/febRecordLowF'
p2079
I496
sS'-http://dbpedia.org/property/yearPrecipitationInch'
p2080
g4
(g8
S'\xd0\x03\x00\x00\x00\x00\x00\x00'
p2081
tp2082
Rp2083
sS'http://dbpedia.org/property/leaderTitle'
p2084
I108
sS'http://dbpedia.org/property/latitude'
p2085
I315
sS'-http://dbpedia.org/property/janHighF'
p2086
g4
(g8
S'+\x03\x00\x00\x00\x00\x00\x00'
p2087
tp2088
Rp2089
sS'-http://dbpedia.org/property/janHighC'
p2090
g4
(g8
S'\xf6\x02\x00\x00\x00\x00\x00\x00'
p2091
tp2092
Rp2093
sS'-http://dbpedia.org/property/timezoneDst'
p2094
g4
(g8
S'f\x02\x00\x00\x00\x00\x00\x00'
p2095
tp2096
Rp2097
sS'-http://dbpedia.org/property/leaderTitle'
p2098
g4
(g8
S'a\x02\x00\x00\x00\x00\x00\x00'
p2099
tp2100
Rp2101
sS'-http://dbpedia.org/property/siteCityst'
p2102
g4
(g8
S'\xe7\x02\x00\x00\x00\x00\x00\x00'
p2103
tp2104
Rp2105
sS'-http://dbpedia.org/ontology/guest'
p2106
g4
(g8
S'j\x02\x00\x00\x00\x00\x00\x00'
p2107
tp2108
Rp2109
sS'http://dbpedia.org/ontology/musicalArtist'
p2110
I414
sS'http://dbpedia.org/property/years'
p2111
I292
sS'-http://dbpedia.org/property/febPrecipitationMm'
p2112
g4
(g8
S'S\x03\x00\x00\x00\x00\x00\x00'
p2113
tp2114
Rp2115
sS'http://dbpedia.org/property/coordinatesType'
p2116
I209
sS'-http://dbpedia.org/property/novPrecipitationInch'
p2117
g4
(g8
S'E\x03\x00\x00\x00\x00\x00\x00'
p2118
tp2119
Rp2120
sS'http://dbpedia.org/ontology/populationTotal'
p2121
I58
sS'http://dbpedia.org/property/aprRecordHighC'
p2122
I444
sS'-http://dbpedia.org/property/aprRecordHighF'
p2123
g4
(g8
S'\xd9\x03\x00\x00\x00\x00\x00\x00'
p2124
tp2125
Rp2126
sS'http://dbpedia.org/property/population'
p2127
I287
sS'http://dbpedia.org/property/aprRecordHighF'
p2128
I484
sS'-http://dbpedia.org/property/locations'
p2129
g4
(g8
S'm\x03\x00\x00\x00\x00\x00\x00'
p2130
tp2131
Rp2132
sS'-http://dbpedia.org/property/executiveProducer'
p2133
g4
(g8
S'C\x03\x00\x00\x00\x00\x00\x00'
p2134
tp2135
Rp2136
sS'-http://dbpedia.org/ontology/postalCode'
p2137
g4
(g8
S'<\x02\x00\x00\x00\x00\x00\x00'
p2138
tp2139
Rp2140
sS'http://dbpedia.org/property/febRecordLowC'
p2141
I430
sS'http://schema.org/MusicGroup'
p2142
I1099
sS'http://dbpedia.org/property/augRecordHighC'
p2143
I439
sS'-http://dbpedia.org/property/blank1Info'
p2144
g4
(g8
S'\x8b\x02\x00\x00\x00\x00\x00\x00'
p2145
tp2146
Rp2147
sS'http://dbpedia.org/property/augRecordHighF'
p2148
I488
sS'http://www.w3.org/2002/07/owl#Thing'
p2149
I1106
sS'-http://xmlns.com/foaf/0.1/surname'
p2150
g4
(g8
S'\xff\x01\x00\x00\x00\x00\x00\x00'
p2151
tp2152
Rp2153
sS'http://dbpedia.org/property/home'
p2154
I151
sS'-http://dbpedia.org/ontology/child'
p2155
g4
(g8
S'\xaf\x02\x00\x00\x00\x00\x00\x00'
p2156
tp2157
Rp2158
sS'http://dbpedia.org/ontology/Airport'
p2159
I1006
sS'http://dbpedia.org/ontology/Architect'
p2160
I1009
sS'http://dbpedia.org/property/sepHighC'
p2161
I264
sS'-http://dbpedia.org/property/studio'
p2162
g4
(g8
S'g\x02\x00\x00\x00\x00\x00\x00'
p2163
tp2164
Rp2165
sS'-http://dbpedia.org/property/viaf'
p2166
g4
(g8
S'\xe9\x02\x00\x00\x00\x00\x00\x00'
p2167
tp2168
Rp2169
sS'http://dbpedia.org/property/sepHighF'
p2170
I305
sS'-http://dbpedia.org/property/centre'
p2171
g4
(g8
S'\xe2\x02\x00\x00\x00\x00\x00\x00'
p2172
tp2173
Rp2174
sS'-http://dbpedia.org/property/marRecordHighC'
p2175
g4
(g8
S'\xaa\x03\x00\x00\x00\x00\x00\x00'
p2176
tp2177
Rp2178
sS'http://dbpedia.org/property/country'
p2179
I47
sS'http://dbpedia.org/ontology/billed'
p2180
I297
sS'-http://dbpedia.org/property/destinations'
p2181
g4
(g8
S'\x8f\x03\x00\x00\x00\x00\x00\x00'
p2182
tp2183
Rp2184
sS'-http://dbpedia.org/property/marRecordHighF'
p2185
g4
(g8
S'\xd8\x03\x00\x00\x00\x00\x00\x00'
p2186
tp2187
Rp2188
sS'-http://dbpedia.org/property/aprPrecipitationDays'
p2189
g4
(g8
S'b\x03\x00\x00\x00\x00\x00\x00'
p2190
tp2191
Rp2192
sS'-http://dbpedia.org/property/febHighC'
p2193
g4
(g8
S'\xf7\x02\x00\x00\x00\x00\x00\x00'
p2194
tp2195
Rp2196
sS'-http://dbpedia.org/property/pushpinMap'
p2197
g4
(g8
S'\xca\x02\x00\x00\x00\x00\x00\x00'
p2198
tp2199
Rp2200
sS'http://dbpedia.org/property/julMeanC'
p2201
I458
sS'-http://dbpedia.org/property/origin'
p2202
g4
(g8
S'8\x02\x00\x00\x00\x00\x00\x00'
p2203
tp2204
Rp2205
sS'-http://dbpedia.org/property/mayHighF'
p2206
g4
(g8
S'$\x03\x00\x00\x00\x00\x00\x00'
p2207
tp2208
Rp2209
sS'http://dbpedia.org/ontology/Actor'
p2210
I1002
sS'-http://dbpedia.org/property/augHighF'
p2211
g4
(g8
S'(\x03\x00\x00\x00\x00\x00\x00'
p2212
tp2213
Rp2214
sS'http://dbpedia.org/property/p'
p2215
I399
sS'-http://dbpedia.org/property/terminusA'
p2216
g4
(g8
S'\x86\x03\x00\x00\x00\x00\x00\x00'
p2217
tp2218
Rp2219
sS'-http://dbpedia.org/property/terminusB'
p2220
g4
(g8
S'\xa9\x03\x00\x00\x00\x00\x00\x00'
p2221
tp2222
Rp2223
sS'http://dbpedia.org/property/blank1Info'
p2224
I150
sS'-http://dbpedia.org/property/areaWaterSqMi'
p2225
g4
(g8
S'\x90\x02\x00\x00\x00\x00\x00\x00'
p2226
tp2227
Rp2228
sS'http://www.ontologydesignpatterns.org/ont/dul/DUL.owl#Agent'
p2229
I1103
sS'-http://dbpedia.org/property/alternativeNames'
p2230
g4
(g8
S'.\x02\x00\x00\x00\x00\x00\x00'
p2231
tp2232
Rp2233
sS'http://dbpedia.org/ontology/BaseballPlayer'
p2234
I1014
sS'-http://dbpedia.org/property/region'
p2235
g4
(g8
S'e\x02\x00\x00\x00\x00\x00\x00'
p2236
tp2237
Rp2238
sS'http://dbpedia.org/property/junPrecipitationMm'
p2239
I358
sS'-http://dbpedia.org/property/ground'
p2240
g4
(g8
S'\xb2\x02\x00\x00\x00\x00\x00\x00'
p2241
tp2242
Rp2243
sS'http://dbpedia.org/property/directedby'
p2244
I221
sS'http://dbpedia.org/property/southeast'
p2245
I182
sS'-http://dbpedia.org/property/placeofburial'
p2246
g4
(g8
S'@\x03\x00\x00\x00\x00\x00\x00'
p2247
tp2248
Rp2249
sS'http://dbpedia.org/property/name'
p2250
I3
sS'http://dbpedia.org/ontology/OfficeHolder'
p2251
I1056
sS'-http://dbpedia.org/property/febMeanC'
p2252
g4
(g8
S'\xbe\x03\x00\x00\x00\x00\x00\x00'
p2253
tp2254
Rp2255
sS'-http://xmlns.com/foaf/0.1/givenName'
p2256
g4
(g8
S'\xfe\x01\x00\x00\x00\x00\x00\x00'
p2257
tp2258
Rp2259
sS'-http://dbpedia.org/property/assembly'
p2260
g4
(g8
S'\x88\x03\x00\x00\x00\x00\x00\x00'
p2261
tp2262
Rp2263
sS'-http://dbpedia.org/ontology/billed'
p2264
g4
(g8
S'\x1e\x03\x00\x00\x00\x00\x00\x00'
p2265
tp2266
Rp2267
sS'http://dbpedia.org/property/junRecordLowC'
p2268
I429
sS'http://dbpedia.org/property/executiveProducer'
p2269
I334
sS'-http://dbpedia.org/ontology/ground'
p2270
g4
(g8
S'\x9c\x02\x00\x00\x00\x00\x00\x00'
p2271
tp2272
Rp2273
sS'http://dbpedia.org/property/junRecordLowF'
p2274
I499
sS'http://dbpedia.org/property/sepSun'
p2275
I390
sS'http://dbpedia.org/property/mayRecordHighC'
p2276
I448
sS'http://dbpedia.org/ontology/associatedMusicalArtist'
p2277
I169
sS'-http://dbpedia.org/ontology/spokenIn'
p2278
g4
(g8
S't\x03\x00\x00\x00\x00\x00\x00'
p2279
tp2280
Rp2281
sS'http://dbpedia.org/property/mayRecordHighF'
p2282
I485
sS'http://dbpedia.org/property/junRecordHighC'
p2283
I445
sS'http://dbpedia.org/ontology/parent'
p2284
I208
sS'http://dbpedia.org/ontology/BaseballLeague'
p2285
I1013
sS'-http://dbpedia.org/property/mayMeanC'
p2286
g4
(g8
S'\xc4\x03\x00\x00\x00\x00\x00\x00'
p2287
tp2288
Rp2289
sS'http://dbpedia.org/property/marPrecipitationInch'
p2290
I343
sS'http://dbpedia.org/property/sepPrecipitationMm'
p2291
I351
sS'http://dbpedia.org/property/residence'
p2292
I61
sS'http://dbpedia.org/property/unitPrecipitationDays'
p2293
I470
sS'-http://dbpedia.org/property/name'
p2294
g4
(g8
S'\xf8\x01\x00\x00\x00\x00\x00\x00'
p2295
tp2296
Rp2297
sS'http://dbpedia.org/property/birthname'
p2298
I218
sS'-http://dbpedia.org/ontology/type'
p2299
g4
(g8
S'E\x02\x00\x00\x00\x00\x00\x00'
p2300
tp2301
Rp2302
sS'http://dbpedia.org/ontology/IceHockeyPlayer'
p2303
I1044
sS'-http://dbpedia.org/property/longd'
p2304
g4
(g8
S'9\x02\x00\x00\x00\x00\x00\x00'
p2305
tp2306
Rp2307
sS'-http://dbpedia.org/property/establishedDate'
p2308
g4
(g8
S'n\x02\x00\x00\x00\x00\x00\x00'
p2309
tp2310
Rp2311
sS'http://dbpedia.org/property/background'
p2312
I232
sS'-http://dbpedia.org/property/cities'
p2313
g4
(g8
S'n\x03\x00\x00\x00\x00\x00\x00'
p2314
tp2315
Rp2316
sS'http://dbpedia.org/property/establishedDate'
p2317
I121
sS'-http://dbpedia.org/property/augRecordLowC'
p2318
g4
(g8
S'\xa0\x03\x00\x00\x00\x00\x00\x00'
p2319
tp2320
Rp2321
sS'http://www.w3.org/1999/02/22-rdf-syntax-ns#type'
p2322
I1
sS'-http://dbpedia.org/ontology/distributor'
p2323
g4
(g8
S'@\x02\x00\x00\x00\x00\x00\x00'
p2324
tp2325
Rp2326
sS'-http://dbpedia.org/property/background'
p2327
g4
(g8
S'\xdd\x02\x00\x00\x00\x00\x00\x00'
p2328
tp2329
Rp2330
sS'http://dbpedia.org/ontology/PeriodicalLiterature'
p2331
I1059
sS'-http://dbpedia.org/property/date'
p2332
g4
(g8
S'\x83\x02\x00\x00\x00\x00\x00\x00'
p2333
tp2334
Rp2335
sS'-http://dbpedia.org/property/leaderName'
p2336
g4
(g8
S']\x02\x00\x00\x00\x00\x00\x00'
p2337
tp2338
Rp2339
sS'-http://dbpedia.org/property/data'
p2340
g4
(g8
S'\x0f\x03\x00\x00\x00\x00\x00\x00'
p2341
tp2342
Rp2343
sS'-http://dbpedia.org/property/febRecordHighC'
p2344
g4
(g8
S'\xb3\x03\x00\x00\x00\x00\x00\x00'
p2345
tp2346
Rp2347
sS'http://dbpedia.org/property/areaWaterPercent'
p2348
I418
sS'-http://dbpedia.org/property/blank1Name'
p2349
g4
(g8
S'\x7f\x02\x00\x00\x00\x00\x00\x00'
p2350
tp2351
Rp2352
sS'-http://dbpedia.org/ontology/musicalBand'
p2353
g4
(g8
S'\x94\x03\x00\x00\x00\x00\x00\x00'
p2354
tp2355
Rp2356
sS'http://www.wikidata.org/entity/Q15265344'
p2357
I1112
sS'-http://dbpedia.org/ontology/parent'
p2358
g4
(g8
S'\xc5\x02\x00\x00\x00\x00\x00\x00'
p2359
tp2360
Rp2361
sS'http://dbpedia.org/property/starring'
p2362
I15
sS'-http://dbpedia.org/property/populationRank'
p2363
g4
(g8
S'w\x03\x00\x00\x00\x00\x00\x00'
p2364
tp2365
Rp2366
sS'http://dbpedia.org/property/restingPlace'
p2367
I178
sS'http://dbpedia.org/ontology/AdministrativeRegion'
p2368
I1003
sS'-http://dbpedia.org/ontology/elevation'
p2369
g4
(g8
S'Z\x02\x00\x00\x00\x00\x00\x00'
p2370
tp2371
Rp2372
sS'http://dbpedia.org/property/relatives'
p2373
I239
sS'-http://dbpedia.org/ontology/birthDate'
p2374
g4
(g8
S'\x01\x02\x00\x00\x00\x00\x00\x00'
p2375
tp2376
Rp2377
sS'-http://dbpedia.org/property/nickname'
p2378
g4
(g8
S'\xc8\x02\x00\x00\x00\x00\x00\x00'
p2379
tp2380
Rp2381
sS'-http://dbpedia.org/property/coordinatesRegion'
p2382
g4
(g8
S'\x81\x02\x00\x00\x00\x00\x00\x00'
p2383
tp2384
Rp2385
sS'-http://dbpedia.org/property/south'
p2386
g4
(g8
S'y\x02\x00\x00\x00\x00\x00\x00'
p2387
tp2388
Rp2389
sS'-http://www.w3.org/1999/02/22-rdf-syntax-ns#type'
p2390
g4
(g8
S'\xf6\x01\x00\x00\x00\x00\x00\x00'
p2391
tp2392
Rp2393
sS'http://dbpedia.org/property/octMeanC'
p2394
I453
sS'-http://dbpedia.org/property/febPrecipitationDays'
p2395
g4
(g8
S'a\x03\x00\x00\x00\x00\x00\x00'
p2396
tp2397
Rp2398
sS'-http://dbpedia.org/ontology/recordLabel'
p2399
g4
(g8
S'9\x03\x00\x00\x00\x00\x00\x00'
p2400
tp2401
Rp2402
sS'http://dbpedia.org/property/novSun'
p2403
I387
sS'-http://dbpedia.org/property/district'
p2404
g4
(g8
S'\x91\x03\x00\x00\x00\x00\x00\x00'
p2405
tp2406
Rp2407
sS'http://dbpedia.org/property/studio'
p2408
I114
sS'-http://dbpedia.org/property/guests'
p2409
g4
(g8
S'>\x02\x00\x00\x00\x00\x00\x00'
p2410
tp2411
Rp2412
sS'http://dbpedia.org/property/janMeanC'
p2413
I462
sS'http://xmlns.com/foaf/0.1/surname'
p2414
I10
sS'http://dbpedia.org/ontology/Company'
p2415
I1027
sS'-http://dbpedia.org/property/aprRecordHighC'
p2416
g4
(g8
S'\xb1\x03\x00\x00\x00\x00\x00\x00'
p2417
tp2418
Rp2419
sS'-http://dbpedia.org/property/type'
p2420
g4
(g8
S'\x12\x03\x00\x00\x00\x00\x00\x00'
p2421
tp2422
Rp2423
sS'http://dbpedia.org/property/febRecordHighC'
p2424
I446
sS'http://dbpedia.org/ontology/Writer'
p2425
I1092
sS'-http://dbpedia.org/property/screenplay'
p2426
g4
(g8
S'\xa5\x02\x00\x00\x00\x00\x00\x00'
p2427
tp2428
Rp2429
sS'-http://dbpedia.org/ontology/musicalArtist'
p2430
g4
(g8
S'\x93\x03\x00\x00\x00\x00\x00\x00'
p2431
tp2432
Rp2433
sS'-http://dbpedia.org/property/composer'
p2434
g4
(g8
S'\x87\x03\x00\x00\x00\x00\x00\x00'
p2435
tp2436
Rp2437
sS'-http://dbpedia.org/property/subdivisionName'
p2438
g4
(g8
S'!\x02\x00\x00\x00\x00\x00\x00'
p2439
tp2440
Rp2441
sS'-http://dbpedia.org/property/areaTotalSqMi'
p2442
g4
(g8
S'\x80\x02\x00\x00\x00\x00\x00\x00'
p2443
tp2444
Rp2445
sS'http://dbpedia.org/property/voices'
p2446
I384
sS'-http://dbpedia.org/ontology/activeYearsStartYear'
p2447
g4
(g8
S'\t\x02\x00\x00\x00\x00\x00\x00'
p2448
tp2449
Rp2450
sS'http://dbpedia.org/property/febPrecipitationDays'
p2451
I364
sS'http://dbpedia.org/property/terminusA'
p2452
I401
sS'http://dbpedia.org/property/terminusB'
p2453
I436
sS'http://dbpedia.org/property/yearRecordLowC'
p2454
I476
sS'-http://dbpedia.org/property/timezone'
p2455
g4
(g8
S'B\x02\x00\x00\x00\x00\x00\x00'
p2456
tp2457
Rp2458
sS'http://dbpedia.org/property/augLowF'
p2459
I322
sS'-http://dbpedia.org/property/junHighC'
p2460
g4
(g8
S'\xfe\x02\x00\x00\x00\x00\x00\x00'
p2461
tp2462
Rp2463
sS'http://www.wikidata.org/entity/Q486972'
p2464
I1125
sS'http://dbpedia.org/ontology/foundationPlace'
p2465
I161
sS'-http://dbpedia.org/property/junHighF'
p2466
g4
(g8
S' \x03\x00\x00\x00\x00\x00\x00'
p2467
tp2468
Rp2469
sS'http://dbpedia.org/property/genre'
p2470
I199
sS'-http://dbpedia.org/property/postcodeArea'
p2471
g4
(g8
S'\xcc\x03\x00\x00\x00\x00\x00\x00'
p2472
tp2473
Rp2474
sS'http://dbpedia.org/property/utcOffsetDst'
p2475
I103
sS'-http://dbpedia.org/ontology/almaMater'
p2476
g4
(g8
S'\xb9\x02\x00\x00\x00\x00\x00\x00'
p2477
tp2478
Rp2479
sS'http://dbpedia.org/property/junLowF'
p2480
I320
sS'http://dbpedia.org/property/width'
p2481
I249
sS'-http://dbpedia.org/property/novRecordLowC'
p2482
g4
(g8
S'\x9c\x03\x00\x00\x00\x00\x00\x00'
p2483
tp2484
Rp2485
sS'-http://dbpedia.org/property/deathDate'
p2486
g4
(g8
S')\x02\x00\x00\x00\x00\x00\x00'
p2487
tp2488
Rp2489
sS'http://dbpedia.org/property/novHighC'
p2490
I268
sS'http://dbpedia.org/property/junLowC'
p2491
I278
sS'-http://dbpedia.org/property/novRecordLowF'
p2492
g4
(g8
S'\xe4\x03\x00\x00\x00\x00\x00\x00'
p2493
tp2494
Rp2495
sS'http://dbpedia.org/property/octRecordLowC'
p2496
I434
sS'http://dbpedia.org/property/octPrecipitationMm'
p2497
I354
sS'http://dbpedia.org/ontology/leaderTitle'
p2498
I111
sS'http://dbpedia.org/property/latm'
p2499
I84
sS'http://dbpedia.org/property/maySun'
p2500
I397
sS'-http://dbpedia.org/property/venue'
p2501
g4
(g8
S'\xd6\x02\x00\x00\x00\x00\x00\x00'
p2502
tp2503
Rp2504
sS'-http://dbpedia.org/ontology/author'
p2505
g4
(g8
S'\x85\x03\x00\x00\x00\x00\x00\x00'
p2506
tp2507
Rp2508
sS'http://dbpedia.org/property/postalCodeType'
p2509
I105
sS'http://dbpedia.org/property/locations'
p2510
I376
sS'-http://dbpedia.org/ontology/voice'
p2511
g4
(g8
S'\x15\x03\x00\x00\x00\x00\x00\x00'
p2512
tp2513
Rp2514
sS'-http://dbpedia.org/property/caption'
p2515
g4
(g8
S'\x06\x02\x00\x00\x00\x00\x00\x00'
p2516
tp2517
Rp2518
sS'-http://dbpedia.org/property/populationMetro'
p2519
g4
(g8
S'\xf0\x02\x00\x00\x00\x00\x00\x00'
p2520
tp2521
Rp2522
sS'http://dbpedia.org/property/language'
p2523
I82
sS'-http://dbpedia.org/property/postalCodeType'
p2524
g4
(g8
S'^\x02\x00\x00\x00\x00\x00\x00'
p2525
tp2526
Rp2527
sS'-http://dbpedia.org/ontology/award'
p2528
g4
(g8
S'\x1c\x03\x00\x00\x00\x00\x00\x00'
p2529
tp2530
Rp2531
sS'-http://dbpedia.org/property/shipNamesake'
p2532
g4
(g8
S'=\x03\x00\x00\x00\x00\x00\x00'
p2533
tp2534
Rp2535
sS'-http://dbpedia.org/property/elevationM'
p2536
g4
(g8
S'o\x02\x00\x00\x00\x00\x00\x00'
p2537
tp2538
Rp2539
sS'http://dbpedia.org/ontology/creator'
p2540
I290
sS'-http://dbpedia.org/property/janSun'
p2541
g4
(g8
S'}\x03\x00\x00\x00\x00\x00\x00'
p2542
tp2543
Rp2544
sS'-http://dbpedia.org/ontology/regionServed'
p2545
g4
(g8
S'\xd8\x02\x00\x00\x00\x00\x00\x00'
p2546
tp2547
Rp2548
sS'-http://www.w3.org/2000/01/rdf-schema#seeAlso'
p2549
g4
(g8
S'0\x02\x00\x00\x00\x00\x00\x00'
p2550
tp2551
Rp2552
sS'-http://dbpedia.org/ontology/residence'
p2553
g4
(g8
S'7\x02\x00\x00\x00\x00\x00\x00'
p2554
tp2555
Rp2556
sS'http://dbpedia.org/ontology/author'
p2557
I400
sS'-http://dbpedia.org/property/unitPref'
p2558
g4
(g8
S'\x98\x02\x00\x00\x00\x00\x00\x00'
p2559
tp2560
Rp2561
sS'http://dbpedia.org/ontology/GolfPlayer'
p2562
I1039
sS'http://dbpedia.org/property/sepRecordLowC'
p2563
I424
sS'http://dbpedia.org/property/cityServed'
p2564
I173
sS'-http://dbpedia.org/property/populationTotal'
p2565
g4
(g8
S'N\x02\x00\x00\x00\x00\x00\x00'
p2566
tp2567
Rp2568
sS'http://dbpedia.org/ontology/headquarter'
p2569
I153
sS'-http://dbpedia.org/ontology/writer'
p2570
g4
(g8
S'\x16\x02\x00\x00\x00\x00\x00\x00'
p2571
tp2572
Rp2573
sS'-http://dbpedia.org/property/janRecordLowF'
p2574
g4
(g8
S'\xe0\x03\x00\x00\x00\x00\x00\x00'
p2575
tp2576
Rp2577
sS'-http://dbpedia.org/property/decMeanC'
p2578
g4
(g8
S'\xbd\x03\x00\x00\x00\x00\x00\x00'
p2579
tp2580
Rp2581
sS'-http://dbpedia.org/property/augSun'
p2582
g4
(g8
S'\x81\x03\x00\x00\x00\x00\x00\x00'
p2583
tp2584
Rp2585
sS'-http://dbpedia.org/property/janRecordLowC'
p2586
g4
(g8
S'\xa1\x03\x00\x00\x00\x00\x00\x00'
p2587
tp2588
Rp2589
sS'http://dbpedia.org/ontology/language'
p2590
I250
sS'-http://dbpedia.org/property/metricFirst'
p2591
g4
(g8
S'\xea\x02\x00\x00\x00\x00\x00\x00'
p2592
tp2593
Rp2594
sS'http://dbpedia.org/property/locale'
p2595
I119
sS'http://dbpedia.org/property/populationTotal'
p2596
I89
sS'-http://dbpedia.org/property/aprMeanC'
p2597
g4
(g8
S'\xc2\x03\x00\x00\x00\x00\x00\x00'
p2598
tp2599
Rp2600
sS'http://dbpedia.org/ontology/assembly'
p2601
I347
sS'http://dbpedia.org/property/composer'
p2602
I402
sS'http://dbpedia.org/property/augHighC'
p2603
I262
sS'http://dbpedia.org/property/data'
p2604
I282
sS'http://dbpedia.org/ontology/motto'
p2605
I236
sS'http://dbpedia.org/property/northwest'
p2606
I179
sS'-http://dbpedia.org/ontology/headquarter'
p2607
g4
(g8
S'\x8e\x02\x00\x00\x00\x00\x00\x00'
p2608
tp2609
Rp2610
sS'http://dbpedia.org/property/novRecordHighF'
p2611
I477
sS'-http://dbpedia.org/property/augLowC'
p2612
g4
(g8
S'\x03\x03\x00\x00\x00\x00\x00\x00'
p2613
tp2614
Rp2615
sS'http://dbpedia.org/property/janPrecipitationDays'
p2616
I371
sS'-http://dbpedia.org/property/augLowF'
p2617
g4
(g8
S'7\x03\x00\x00\x00\x00\x00\x00'
p2618
tp2619
Rp2620
sS'http://dbpedia.org/property/novRecordHighC'
p2621
I442
sS'-http://dbpedia.org/property/mayRecordHighC'
p2622
g4
(g8
S'\xb5\x03\x00\x00\x00\x00\x00\x00'
p2623
tp2624
Rp2625
sS'-http://dbpedia.org/property/aprHighF'
p2626
g4
(g8
S'%\x03\x00\x00\x00\x00\x00\x00'
p2627
tp2628
Rp2629
sS'-http://dbpedia.org/property/mayRecordHighF'
p2630
g4
(g8
S'\xda\x03\x00\x00\x00\x00\x00\x00'
p2631
tp2632
Rp2633
sS'-http://dbpedia.org/property/aprHighC'
p2634
g4
(g8
S'\x00\x03\x00\x00\x00\x00\x00\x00'
p2635
tp2636
Rp2637
s.